---
triple:          'arm64-apple-darwin'
binary-path:     closest.out
relocations:
  - { offsetInCU: 0x545A, offset: 0x545A, size: 0x8, addend: 0x0, symName: __ZNSt3__124__put_character_sequenceB7v160006IcNS_11char_traitsIcEEEERNS_13basic_ostreamIT_T0_EES7_PKS4_m, symObjAddr: 0x1648, symBinAddr: 0x100005AA4, symSize: 0x1F4 }
  - { offsetInCU: 0x95C1, offset: 0x95C1, size: 0x8, addend: 0x0, symName: __ZNSt3__1lsB7v160006INS_11char_traitsIcEEEERNS_13basic_ostreamIcT_EES6_PKc, symObjAddr: 0xB78, symBinAddr: 0x100004FD4, symSize: 0x48 }
  - { offsetInCU: 0x9607, offset: 0x9607, size: 0x8, addend: 0x0, symName: __ZNSt3__1lsB7v160006IcNS_11char_traitsIcEENS_9allocatorIcEEEERNS_13basic_ostreamIT_T0_EES9_RKNS_12basic_stringIS6_S7_T1_EE, symObjAddr: 0xBC0, symBinAddr: 0x10000501C, symSize: 0x4C }
  - { offsetInCU: 0x965F, offset: 0x965F, size: 0x8, addend: 0x0, symName: __ZNSt3__14endlB7v160006IcNS_11char_traitsIcEEEERNS_13basic_ostreamIT_T0_EES7_, symObjAddr: 0xC38, symBinAddr: 0x100005094, symSize: 0x58 }
  - { offsetInCU: 0x9AB5, offset: 0x9AB5, size: 0x8, addend: 0x0, symName: __ZNSt3__112__to_addressB7v160006IKcEEPT_S3_, symObjAddr: 0x137C, symBinAddr: 0x1000057D8, symSize: 0x14 }
  - { offsetInCU: 0x9AEA, offset: 0x9AEA, size: 0x8, addend: 0x0, symName: __ZNSt3__130__libcpp_is_constant_evaluatedB7v160006Ev, symObjAddr: 0x14A8, symBinAddr: 0x100005904, symSize: 0xC }
  - { offsetInCU: 0x9B3A, offset: 0x9B3A, size: 0x8, addend: 0x0, symName: __ZNSt3__19use_facetB7v160006INS_5ctypeIcEEEERKT_RKNS_6localeE, symObjAddr: 0x15E4, symBinAddr: 0x100005A40, symSize: 0x2C }
  - { offsetInCU: 0xA009, offset: 0xA009, size: 0x8, addend: 0x0, symName: __ZNSt3__116__pad_and_outputB7v160006IcNS_11char_traitsIcEEEENS_19ostreambuf_iteratorIT_T0_EES6_PKS4_S8_S8_RNS_8ios_baseES4_, symObjAddr: 0x18A0, symBinAddr: 0x100005CFC, symSize: 0x248 }
  - { offsetInCU: 0xA0D8, offset: 0xA0D8, size: 0x8, addend: 0x0, symName: __ZNSt3__119__debug_db_insert_cB7v160006INS_12basic_stringIcNS_11char_traitsIcEENS_9allocatorIcEEEEEEvPT_, symObjAddr: 0x1D08, symBinAddr: 0x100006164, symSize: 0x10 }
  - { offsetInCU: 0xA109, offset: 0xA109, size: 0x8, addend: 0x0, symName: __ZNSt3__118__constexpr_strlenB7v160006EPKc, symObjAddr: 0x1EA0, symBinAddr: 0x1000062FC, symSize: 0x24 }
  - { offsetInCU: 0xA135, offset: 0xA135, size: 0x8, addend: 0x0, symName: __ZNSt3__122__make_exception_guardB7v160006INS_6vectorINS1_I5pointNS_9allocatorIS2_EEEENS3_IS5_EEE16__destroy_vectorEEENS_28__exception_guard_exceptionsIT_EESA_, symObjAddr: 0x2098, symBinAddr: 0x1000064F4, symSize: 0x40 }
  - { offsetInCU: 0xA16A, offset: 0xA16A, size: 0x8, addend: 0x0, symName: __ZNSt3__119__debug_db_insert_cB7v160006INS_6vectorINS1_I5pointNS_9allocatorIS2_EEEENS3_IS5_EEEEEEvPT_, symObjAddr: 0x210C, symBinAddr: 0x100006568, symSize: 0x10 }
  - { offsetInCU: 0xA19B, offset: 0xA19B, size: 0x8, addend: 0x0, symName: __ZNSt3__119__allocate_at_leastB7v160006INS_9allocatorINS_6vectorI5pointNS1_IS3_EEEEEEEENS_19__allocation_resultINS_16allocator_traitsIT_E7pointerEEERS9_m, symObjAddr: 0x24B8, symBinAddr: 0x100006914, symSize: 0x40 }
  - { offsetInCU: 0xA1DE, offset: 0xA1DE, size: 0x8, addend: 0x0, symName: __ZNSt3__13minB7v160006ImEERKT_S3_S3_, symObjAddr: 0x2610, symBinAddr: 0x100006A6C, symSize: 0x2C }
  - { offsetInCU: 0xA422, offset: 0xA422, size: 0x8, addend: 0x0, symName: __ZNSt3__13minB7v160006ImNS_6__lessImmEEEERKT_S5_S5_T0_, symObjAddr: 0x269C, symBinAddr: 0x100006AF8, symSize: 0x54 }
  - { offsetInCU: 0xA4B7, offset: 0xA4B7, size: 0x8, addend: 0x0, symName: __ZNSt3__120__throw_length_errorB7v160006EPKc, symObjAddr: 0x277C, symBinAddr: 0x100006BD8, symSize: 0x64 }
  - { offsetInCU: 0xA4DF, offset: 0xA4DF, size: 0x8, addend: 0x0, symName: __ZNSt3__117__libcpp_allocateB7v160006Emm, symObjAddr: 0x2920, symBinAddr: 0x100006D7C, symSize: 0x28 }
  - { offsetInCU: 0xA51C, offset: 0xA51C, size: 0x8, addend: 0x0, symName: __ZNSt3__121__libcpp_operator_newB7v160006IJmEEEPvDpT_, symObjAddr: 0x2948, symBinAddr: 0x100006DA4, symSize: 0x24 }
  - { offsetInCU: 0xA555, offset: 0xA555, size: 0x8, addend: 0x0, symName: __ZNSt3__112__to_addressB7v160006INS_6vectorI5pointNS_9allocatorIS2_EEEEEEPT_S7_, symObjAddr: 0x2A64, symBinAddr: 0x100006EC0, symSize: 0x14 }
  - { offsetInCU: 0xA58A, offset: 0xA58A, size: 0x8, addend: 0x0, symName: __ZNSt3__119__debug_db_insert_cB7v160006INS_6vectorI5pointNS_9allocatorIS2_EEEEEEvPT_, symObjAddr: 0x2C94, symBinAddr: 0x1000070F0, symSize: 0x10 }
  - { offsetInCU: 0xA5BB, offset: 0xA5BB, size: 0x8, addend: 0x0, symName: __ZNSt3__118__debug_db_erase_cB7v160006INS_6vectorINS1_I5pointNS_9allocatorIS2_EEEENS3_IS5_EEEEEEvPT_, symObjAddr: 0x2F44, symBinAddr: 0x1000073A0, symSize: 0x10 }
  - { offsetInCU: 0xA5EC, offset: 0xA5EC, size: 0x8, addend: 0x0, symName: __ZNSt3__118__debug_db_erase_cB7v160006INS_6vectorI5pointNS_9allocatorIS2_EEEEEEvPT_, symObjAddr: 0x32B4, symBinAddr: 0x100007710, symSize: 0x10 }
  - { offsetInCU: 0xA61D, offset: 0xA61D, size: 0x8, addend: 0x0, symName: __ZNSt3__112__to_addressB7v160006I5pointEEPT_S3_, symObjAddr: 0x33D0, symBinAddr: 0x10000782C, symSize: 0x14 }
  - { offsetInCU: 0xA652, offset: 0xA652, size: 0x8, addend: 0x0, symName: __ZNSt3__119__libcpp_deallocateB7v160006EPvmm, symObjAddr: 0x3534, symBinAddr: 0x100007990, symSize: 0x30 }
  - { offsetInCU: 0xA69A, offset: 0xA69A, size: 0x8, addend: 0x0, symName: __ZNSt3__127__do_deallocate_handle_sizeB7v160006IJEEEvPvmDpT_, symObjAddr: 0x3564, symBinAddr: 0x1000079C0, symSize: 0x28 }
  - { offsetInCU: 0xA6D8, offset: 0xA6D8, size: 0x8, addend: 0x0, symName: __ZNSt3__124__libcpp_operator_deleteB7v160006IJPvEEEvDpT_, symObjAddr: 0x358C, symBinAddr: 0x1000079E8, symSize: 0x24 }
  - { offsetInCU: 0xA70D, offset: 0xA70D, size: 0x8, addend: 0x0, symName: __ZNSt3__122__make_exception_guardB7v160006INS_6vectorINS1_INS1_I5pointNS_9allocatorIS2_EEEENS3_IS5_EEEENS3_IS7_EEE16__destroy_vectorEEENS_28__exception_guard_exceptionsIT_EESC_, symObjAddr: 0x3824, symBinAddr: 0x100007C80, symSize: 0x40 }
  - { offsetInCU: 0xA742, offset: 0xA742, size: 0x8, addend: 0x0, symName: __ZNSt3__119__debug_db_insert_cB7v160006INS_6vectorINS1_INS1_I5pointNS_9allocatorIS2_EEEENS3_IS5_EEEENS3_IS7_EEEEEEvPT_, symObjAddr: 0x3898, symBinAddr: 0x100007CF4, symSize: 0x10 }
  - { offsetInCU: 0xA773, offset: 0xA773, size: 0x8, addend: 0x0, symName: __ZNSt3__119__allocate_at_leastB7v160006INS_9allocatorINS_6vectorINS2_I5pointNS1_IS3_EEEENS1_IS5_EEEEEEEENS_19__allocation_resultINS_16allocator_traitsIT_E7pointerEEERSB_m, symObjAddr: 0x3C4C, symBinAddr: 0x1000080A8, symSize: 0x40 }
  - { offsetInCU: 0xA7B6, offset: 0xA7B6, size: 0x8, addend: 0x0, symName: __ZNSt3__112__to_addressB7v160006INS_6vectorINS1_I5pointNS_9allocatorIS2_EEEENS3_IS5_EEEEEEPT_S9_, symObjAddr: 0x3FC4, symBinAddr: 0x100008420, symSize: 0x14 }
  - { offsetInCU: 0xA7EB, offset: 0xA7EB, size: 0x8, addend: 0x0, symName: __ZNSt3__130__uninitialized_allocator_copyB7v160006INS_9allocatorINS_6vectorI5pointNS1_IS3_EEEEEEPS5_S7_S7_EET2_RT_T0_T1_S8_, symObjAddr: 0x43D8, symBinAddr: 0x100008834, symSize: 0xFC }
  - { offsetInCU: 0xA889, offset: 0xA889, size: 0x8, addend: 0x0, symName: __ZNSt3__122__make_exception_guardB7v160006INS_29_AllocatorDestroyRangeReverseINS_9allocatorINS_6vectorI5pointNS2_IS4_EEEEEEPS6_EEEENS_28__exception_guard_exceptionsIT_EESB_, symObjAddr: 0x44D4, symBinAddr: 0x100008930, symSize: 0x4C }
  - { offsetInCU: 0xA8BF, offset: 0xA8BF, size: 0x8, addend: 0x0, symName: __ZNSt3__122__make_exception_guardB7v160006INS_6vectorI5pointNS_9allocatorIS2_EEE16__destroy_vectorEEENS_28__exception_guard_exceptionsIT_EES8_, symObjAddr: 0x486C, symBinAddr: 0x100008CC8, symSize: 0x40 }
  - { offsetInCU: 0xA8F4, offset: 0xA8F4, size: 0x8, addend: 0x0, symName: __ZNSt3__119__allocate_at_leastB7v160006INS_9allocatorI5pointEEEENS_19__allocation_resultINS_16allocator_traitsIT_E7pointerEEERS6_m, symObjAddr: 0x4BB0, symBinAddr: 0x10000900C, symSize: 0x40 }
  - { offsetInCU: 0xA937, offset: 0xA937, size: 0x8, addend: 0x0, symName: __ZNSt3__130__uninitialized_allocator_copyB7v160006INS_9allocatorI5pointEEPS2_S4_S4_EET2_RT_T0_T1_S5_, symObjAddr: 0x4DF4, symBinAddr: 0x100009250, symSize: 0xFC }
  - { offsetInCU: 0xA9D5, offset: 0xA9D5, size: 0x8, addend: 0x0, symName: __ZNSt3__122__make_exception_guardB7v160006INS_29_AllocatorDestroyRangeReverseINS_9allocatorI5pointEEPS3_EEEENS_28__exception_guard_exceptionsIT_EES8_, symObjAddr: 0x4F60, symBinAddr: 0x1000093BC, symSize: 0x4C }
  - { offsetInCU: 0xAA0B, offset: 0xAA0B, size: 0x8, addend: 0x0, symName: __ZNSt3__119__allocator_destroyB7v160006INS_9allocatorI5pointEENS_16reverse_iteratorIPS2_EES6_EEvRT_T0_T1_, symObjAddr: 0x51E0, symBinAddr: 0x10000963C, symSize: 0x70 }
  - { offsetInCU: 0xAA6E, offset: 0xAA6E, size: 0x8, addend: 0x0, symName: __ZNSt3__1neB7v160006IP5pointS2_EEbRKNS_16reverse_iteratorIT_EERKNS3_IT0_EE, symObjAddr: 0x5284, symBinAddr: 0x1000096E0, symSize: 0x48 }
  - { offsetInCU: 0xAABA, offset: 0xAABA, size: 0x8, addend: 0x0, symName: __ZNSt3__112__to_addressB7v160006INS_16reverse_iteratorIP5pointEEvEENS_5decayIDTclsr19__to_address_helperIT_EE6__callclsr3stdE7declvalIRKS6_EEEEE4typeES8_, symObjAddr: 0x52CC, symBinAddr: 0x100009728, symSize: 0x24 }
  - { offsetInCU: 0xAB19, offset: 0xAB19, size: 0x8, addend: 0x0, symName: __ZNSt3__119__allocator_destroyB7v160006INS_9allocatorINS_6vectorI5pointNS1_IS3_EEEEEENS_16reverse_iteratorIPS5_EES9_EEvRT_T0_T1_, symObjAddr: 0x5500, symBinAddr: 0x10000995C, symSize: 0x70 }
  - { offsetInCU: 0xAB7C, offset: 0xAB7C, size: 0x8, addend: 0x0, symName: __ZNSt3__1neB7v160006IPNS_6vectorI5pointNS_9allocatorIS2_EEEES6_EEbRKNS_16reverse_iteratorIT_EERKNS7_IT0_EE, symObjAddr: 0x55A4, symBinAddr: 0x100009A00, symSize: 0x48 }
  - { offsetInCU: 0xABC8, offset: 0xABC8, size: 0x8, addend: 0x0, symName: __ZNSt3__112__to_addressB7v160006INS_16reverse_iteratorIPNS_6vectorI5pointNS_9allocatorIS3_EEEEEEvEENS_5decayIDTclsr19__to_address_helperIT_EE6__callclsr3stdE7declvalIRKSA_EEEEE4typeESC_, symObjAddr: 0x55EC, symBinAddr: 0x100009A48, symSize: 0x24 }
  - { offsetInCU: 0xAC27, offset: 0xAC27, size: 0x8, addend: 0x0, symName: __ZNSt3__118__debug_db_erase_cB7v160006INS_6vectorINS1_INS1_I5pointNS_9allocatorIS2_EEEENS3_IS5_EEEENS3_IS7_EEEEEEvPT_, symObjAddr: 0x58E0, symBinAddr: 0x100009D3C, symSize: 0x10 }
  - { offsetInCU: 0xAC58, offset: 0xAC58, size: 0x8, addend: 0x0, symName: __ZNSt3__13maxB7v160006ImEERKT_S3_S3_, symObjAddr: 0x5F00, symBinAddr: 0x10000A35C, symSize: 0x2C }
  - { offsetInCU: 0xAC9B, offset: 0xAC9B, size: 0x8, addend: 0x0, symName: __ZNSt3__13maxB7v160006ImNS_6__lessImmEEEERKT_S5_S5_T0_, symObjAddr: 0x5F2C, symBinAddr: 0x10000A388, symSize: 0x54 }
  - { offsetInCU: 0xACF5, offset: 0xACF5, size: 0x8, addend: 0x0, symName: __ZNSt3__142__uninitialized_allocator_move_if_noexceptB7v160006INS_9allocatorI5pointEENS_16reverse_iteratorIPS2_EES6_S2_vEET1_RT_T0_SA_S7_, symObjAddr: 0x61AC, symBinAddr: 0x10000A608, symSize: 0xE8 }
  - { offsetInCU: 0xAD72, offset: 0xAD72, size: 0x8, addend: 0x0, symName: __ZNSt3__14swapB7v160006IP5pointEEvRT_S4_, symObjAddr: 0x6294, symBinAddr: 0x10000A6F0, symSize: 0x3C }
  - { offsetInCU: 0xADC3, offset: 0xADC3, size: 0x8, addend: 0x0, symName: __ZNSt3__125__debug_db_invalidate_allB7v160006INS_6vectorI5pointNS_9allocatorIS2_EEEEEEvPT_, symObjAddr: 0x62D0, symBinAddr: 0x10000A72C, symSize: 0x10 }
  - { offsetInCU: 0xAE19, offset: 0xAE19, size: 0x8, addend: 0x0, symName: __ZNSt3__114__construct_atB7v160006I5pointJS1_EPS1_EEPT_S4_DpOT0_, symObjAddr: 0x62E0, symBinAddr: 0x10000A73C, symSize: 0x2C }
  - { offsetInCU: 0xAE89, offset: 0xAE89, size: 0x8, addend: 0x0, symName: __ZNSt3__14moveB7v160006INS_16reverse_iteratorIP5pointEES4_EET0_T_S6_S5_, symObjAddr: 0x630C, symBinAddr: 0x10000A768, symSize: 0x78 }
  - { offsetInCU: 0xAEE3, offset: 0xAEE3, size: 0x8, addend: 0x0, symName: __ZNSt3__16__moveB7v160006INS_17_ClassicAlgPolicyENS_16reverse_iteratorIP5pointEES5_S5_EENS_4pairIT0_T2_EES7_T1_S8_, symObjAddr: 0x6384, symBinAddr: 0x10000A7E0, symSize: 0x64 }
  - { offsetInCU: 0xAF4F, offset: 0xAF4F, size: 0x8, addend: 0x0, symName: __ZNSt3__123__dispatch_copy_or_moveB7v160006INS_17_ClassicAlgPolicyENS_11__move_loopIS1_EENS_14__move_trivialENS_16reverse_iteratorIP5pointEES8_S8_EENS_4pairIT2_T4_EESA_T3_SB_, symObjAddr: 0x63E8, symBinAddr: 0x10000A844, symSize: 0x7C }
  - { offsetInCU: 0xAFCD, offset: 0xAFCD, size: 0x8, addend: 0x0, symName: __ZNSt3__121__unwrap_and_dispatchB7v160006INS_10__overloadINS_11__move_loopINS_17_ClassicAlgPolicyEEENS_14__move_trivialEEENS_16reverse_iteratorIP5pointEESA_SA_Li0EEENS_4pairIT0_T2_EESC_T1_SD_, symObjAddr: 0x6464, symBinAddr: 0x10000A8C0, symSize: 0x12C }
  - { offsetInCU: 0xB05D, offset: 0xB05D, size: 0x8, addend: 0x0, symName: __ZNSt3__114__unwrap_rangeB7v160006INS_16reverse_iteratorIP5pointEES4_EENS_4pairIT0_S6_EET_S8_, symObjAddr: 0x6590, symBinAddr: 0x10000A9EC, symSize: 0x84 }
  - { offsetInCU: 0xB1B1, offset: 0xB1B1, size: 0x8, addend: 0x0, symName: __ZNSt3__113__unwrap_iterB7v160006INS_16reverse_iteratorIP5pointEENS_18__unwrap_iter_implIS4_Lb0EEELi0EEEDTclsrT0_8__unwrapclsr3stdE7declvalIT_EEEES8_, symObjAddr: 0x66B4, symBinAddr: 0x10000AB10, symSize: 0x44 }
  - { offsetInCU: 0xB1F5, offset: 0xB1F5, size: 0x8, addend: 0x0, symName: __ZNSt3__19make_pairB7v160006INS_16reverse_iteratorIP5pointEES4_EENS_4pairINS_18__unwrap_ref_decayIT_E4typeENS6_IT0_E4typeEEEOS7_OSA_, symObjAddr: 0x66F8, symBinAddr: 0x10000AB54, symSize: 0x38 }
  - { offsetInCU: 0xB244, offset: 0xB244, size: 0x8, addend: 0x0, symName: __ZNSt3__114__rewrap_rangeB7v160006INS_16reverse_iteratorIP5pointEES4_EET_S5_T0_, symObjAddr: 0x6730, symBinAddr: 0x10000AB8C, symSize: 0x5C }
  - { offsetInCU: 0xB290, offset: 0xB290, size: 0x8, addend: 0x0, symName: __ZNSt3__113__rewrap_iterB7v160006INS_16reverse_iteratorIP5pointEES4_NS_18__unwrap_iter_implIS4_Lb0EEEEET_S7_T0_, symObjAddr: 0x678C, symBinAddr: 0x10000ABE8, symSize: 0x88 }
  - { offsetInCU: 0xB5D6, offset: 0xB5D6, size: 0x8, addend: 0x0, symName: __ZSt28__throw_bad_array_new_lengthB7v160006v, symObjAddr: 0x28EC, symBinAddr: 0x100006D48, symSize: 0x34 }
  - { offsetInCU: 0xBE16, offset: 0xBE16, size: 0x8, addend: 0x0, symName: __ZNSt3__16vectorI5pointNS_9allocatorIS1_EEE26__swap_out_circular_bufferERNS_14__split_bufferIS1_RS3_EE, symObjAddr: 0x5DBC, symBinAddr: 0x10000A218, symSize: 0x118 }
  - { offsetInCU: 0xBE57, offset: 0xBE57, size: 0x8, addend: 0x0, symName: __Z3powB7v160006IdiENSt3__19enable_ifIXaasr3std13is_arithmeticIT_EE5valuesr3std13is_arithmeticIT0_EE5valueENS0_9__promoteIS2_S3_vEEE4type4typeES2_S3_, symObjAddr: 0x10AC, symBinAddr: 0x100005508, symSize: 0x38 }
  - { offsetInCU: 0xE091, offset: 0xE091, size: 0x8, addend: 0x0, symName: __Z11closestPairNSt3__112basic_stringIcNS_11char_traitsIcEENS_9allocatorIcEEEE, symObjAddr: 0x0, symBinAddr: 0x10000445C, symSize: 0x9D0 }
  - { offsetInCU: 0xE42A, offset: 0xE42A, size: 0x8, addend: 0x0, symName: __ZNSt3__114basic_ifstreamIcNS_11char_traitsIcEEEC1ERKNS_12basic_stringIcS2_NS_9allocatorIcEEEEj, symObjAddr: 0x9D0, symBinAddr: 0x100004E2C, symSize: 0x17C }
  - { offsetInCU: 0xE474, offset: 0xE474, size: 0x8, addend: 0x0, symName: __ZNKSt3__114basic_ifstreamIcNS_11char_traitsIcEEE7is_openEv, symObjAddr: 0xB4C, symBinAddr: 0x100004FA8, symSize: 0x2C }
  - { offsetInCU: 0xE49B, offset: 0xE49B, size: 0x8, addend: 0x0, symName: __ZNSt3__113basic_ostreamIcNS_11char_traitsIcEEElsB7v160006EPFRS3_S4_E, symObjAddr: 0xC0C, symBinAddr: 0x100005068, symSize: 0x2C }
  - { offsetInCU: 0xE4CF, offset: 0xE4CF, size: 0x8, addend: 0x0, symName: __ZNSt3__19basic_iosIcNS_11char_traitsIcEEE5clearB7v160006Ej, symObjAddr: 0xC90, symBinAddr: 0x1000050EC, symSize: 0x2C }
  - { offsetInCU: 0xE503, offset: 0xE503, size: 0x8, addend: 0x0, symName: __Z8findSizeddddi, symObjAddr: 0xCBC, symBinAddr: 0x100005118, symSize: 0x78 }
  - { offsetInCU: 0xE592, offset: 0xE592, size: 0x8, addend: 0x0, symName: __ZNSt3__16vectorINS0_I5pointNS_9allocatorIS1_EEEENS2_IS4_EEEC1Em, symObjAddr: 0xD34, symBinAddr: 0x100005190, symSize: 0x34 }
  - { offsetInCU: 0xE5CD, offset: 0xE5CD, size: 0x8, addend: 0x0, symName: __ZNSt3__16vectorINS0_INS0_I5pointNS_9allocatorIS1_EEEENS2_IS4_EEEENS2_IS6_EEEC1EmRKS6_, symObjAddr: 0xD68, symBinAddr: 0x1000051C4, symSize: 0x3C }
  - { offsetInCU: 0xE617, offset: 0xE617, size: 0x8, addend: 0x0, symName: __ZNSt3__16vectorINS0_I5pointNS_9allocatorIS1_EEEENS2_IS4_EEED1B7v160006Ev, symObjAddr: 0xDA4, symBinAddr: 0x100005200, symSize: 0x2C }
  - { offsetInCU: 0xE641, offset: 0xE641, size: 0x8, addend: 0x0, symName: __ZNSt3__16vectorINS0_INS0_I5pointNS_9allocatorIS1_EEEENS2_IS4_EEEENS2_IS6_EEEixB7v160006Em, symObjAddr: 0xDDC, symBinAddr: 0x100005238, symSize: 0x2C }
  - { offsetInCU: 0xE678, offset: 0xE678, size: 0x8, addend: 0x0, symName: __ZNSt3__16vectorINS0_I5pointNS_9allocatorIS1_EEEENS2_IS4_EEEixB7v160006Em, symObjAddr: 0xE08, symBinAddr: 0x100005264, symSize: 0x2C }
  - { offsetInCU: 0xE6AF, offset: 0xE6AF, size: 0x8, addend: 0x0, symName: __ZNSt3__16vectorI5pointNS_9allocatorIS1_EEE9push_backB7v160006ERKS1_, symObjAddr: 0xE34, symBinAddr: 0x100005290, symSize: 0x6C }
  - { offsetInCU: 0xE6E5, offset: 0xE6E5, size: 0x8, addend: 0x0, symName: __ZNSt3__114basic_ifstreamIcNS_11char_traitsIcEEE5closeEv, symObjAddr: 0xEA0, symBinAddr: 0x1000052FC, symSize: 0x58 }
  - { offsetInCU: 0xE70C, offset: 0xE70C, size: 0x8, addend: 0x0, symName: __ZNSt3__114numeric_limitsIdE3maxB7v160006Ev, symObjAddr: 0xEF8, symBinAddr: 0x100005354, symSize: 0x14 }
  - { offsetInCU: 0xE720, offset: 0xE720, size: 0x8, addend: 0x0, symName: __ZNKSt3__16vectorINS0_INS0_I5pointNS_9allocatorIS1_EEEENS2_IS4_EEEENS2_IS6_EEE4sizeB7v160006Ev, symObjAddr: 0xF0C, symBinAddr: 0x100005368, symSize: 0x28 }
  - { offsetInCU: 0xE746, offset: 0xE746, size: 0x8, addend: 0x0, symName: __ZNKSt3__16vectorINS0_I5pointNS_9allocatorIS1_EEEENS2_IS4_EEE4sizeB7v160006Ev, symObjAddr: 0xF34, symBinAddr: 0x100005390, symSize: 0x28 }
  - { offsetInCU: 0xE76C, offset: 0xE76C, size: 0x8, addend: 0x0, symName: __ZNKSt3__16vectorI5pointNS_9allocatorIS1_EEE4sizeB7v160006Ev, symObjAddr: 0xF5C, symBinAddr: 0x1000053B8, symSize: 0x28 }
  - { offsetInCU: 0xE792, offset: 0xE792, size: 0x8, addend: 0x0, symName: __ZNSt3__16vectorI5pointNS_9allocatorIS1_EEEixB7v160006Em, symObjAddr: 0xF84, symBinAddr: 0x1000053E0, symSize: 0x24 }
  - { offsetInCU: 0xE7C8, offset: 0xE7C8, size: 0x8, addend: 0x0, symName: __Z8findDistdddd, symObjAddr: 0xFA8, symBinAddr: 0x100005404, symSize: 0x68 }
  - { offsetInCU: 0xE81F, offset: 0xE81F, size: 0x8, addend: 0x0, symName: __ZNSt3__16vectorINS0_INS0_I5pointNS_9allocatorIS1_EEEENS2_IS4_EEEENS2_IS6_EEED1B7v160006Ev, symObjAddr: 0x1010, symBinAddr: 0x10000546C, symSize: 0x2C }
  - { offsetInCU: 0xE84E, offset: 0xE84E, size: 0x8, addend: 0x0, symName: __ZNSt3__114basic_ifstreamIcNS_11char_traitsIcEEED1Ev, symObjAddr: 0x103C, symBinAddr: 0x100005498, symSize: 0x70 }
  - { offsetInCU: 0xE87B, offset: 0xE87B, size: 0x8, addend: 0x0, symName: __ZNSt3__114basic_ifstreamIcNS_11char_traitsIcEEED2Ev, symObjAddr: 0x10E4, symBinAddr: 0x100005540, symSize: 0x9C }
  - { offsetInCU: 0xE8B5, offset: 0xE8B5, size: 0x8, addend: 0x0, symName: __ZTv0_n24_NSt3__114basic_ifstreamIcNS_11char_traitsIcEEED1Ev, symObjAddr: 0x1180, symBinAddr: 0x1000055DC, symSize: 0x28 }
  - { offsetInCU: 0xE8CC, offset: 0xE8CC, size: 0x8, addend: 0x0, symName: __ZNSt3__19basic_iosIcNS_11char_traitsIcEEEC2B7v160006Ev, symObjAddr: 0x11A8, symBinAddr: 0x100005604, symSize: 0x44 }
  - { offsetInCU: 0xE8F6, offset: 0xE8F6, size: 0x8, addend: 0x0, symName: __ZNSt3__113basic_istreamIcNS_11char_traitsIcEEEC2B7v160006EPNS_15basic_streambufIcS2_EE, symObjAddr: 0x11EC, symBinAddr: 0x100005648, symSize: 0x64 }
  - { offsetInCU: 0xE93B, offset: 0xE93B, size: 0x8, addend: 0x0, symName: __ZNSt3__113basic_filebufIcNS_11char_traitsIcEEE4openERKNS_12basic_stringIcS2_NS_9allocatorIcEEEEj, symObjAddr: 0x1250, symBinAddr: 0x1000056AC, symSize: 0x44 }
  - { offsetInCU: 0xE97E, offset: 0xE97E, size: 0x8, addend: 0x0, symName: __ZNSt3__19basic_iosIcNS_11char_traitsIcEEE8setstateB7v160006Ej, symObjAddr: 0x1294, symBinAddr: 0x1000056F0, symSize: 0x2C }
  - { offsetInCU: 0xE9B3, offset: 0xE9B3, size: 0x8, addend: 0x0, symName: __ZNSt3__18ios_baseC2B7v160006Ev, symObjAddr: 0x12C0, symBinAddr: 0x10000571C, symSize: 0x24 }
  - { offsetInCU: 0xE9DD, offset: 0xE9DD, size: 0x8, addend: 0x0, symName: __ZNSt3__19basic_iosIcNS_11char_traitsIcEEE4initB7v160006EPNS_15basic_streambufIcS2_EE, symObjAddr: 0x12E4, symBinAddr: 0x100005740, symSize: 0x44 }
  - { offsetInCU: 0xEA13, offset: 0xEA13, size: 0x8, addend: 0x0, symName: __ZNSt3__111char_traitsIcE3eofEv, symObjAddr: 0x1328, symBinAddr: 0x100005784, symSize: 0x8 }
  - { offsetInCU: 0xEA27, offset: 0xEA27, size: 0x8, addend: 0x0, symName: __ZNKSt3__112basic_stringIcNS_11char_traitsIcEENS_9allocatorIcEEE5c_strB7v160006Ev, symObjAddr: 0x1330, symBinAddr: 0x10000578C, symSize: 0x24 }
  - { offsetInCU: 0xEA4D, offset: 0xEA4D, size: 0x8, addend: 0x0, symName: __ZNKSt3__112basic_stringIcNS_11char_traitsIcEENS_9allocatorIcEEE4dataB7v160006Ev, symObjAddr: 0x1354, symBinAddr: 0x1000057B0, symSize: 0x28 }
  - { offsetInCU: 0xEA73, offset: 0xEA73, size: 0x8, addend: 0x0, symName: __ZNKSt3__112basic_stringIcNS_11char_traitsIcEENS_9allocatorIcEEE13__get_pointerB7v160006Ev, symObjAddr: 0x1390, symBinAddr: 0x1000057EC, symSize: 0x54 }
  - { offsetInCU: 0xEA99, offset: 0xEA99, size: 0x8, addend: 0x0, symName: __ZNKSt3__112basic_stringIcNS_11char_traitsIcEENS_9allocatorIcEEE9__is_longB7v160006Ev, symObjAddr: 0x13E4, symBinAddr: 0x100005840, symSize: 0x74 }
  - { offsetInCU: 0xEABF, offset: 0xEABF, size: 0x8, addend: 0x0, symName: __ZNKSt3__112basic_stringIcNS_11char_traitsIcEENS_9allocatorIcEEE18__get_long_pointerB7v160006Ev, symObjAddr: 0x1458, symBinAddr: 0x1000058B4, symSize: 0x28 }
  - { offsetInCU: 0xEAE5, offset: 0xEAE5, size: 0x8, addend: 0x0, symName: __ZNKSt3__112basic_stringIcNS_11char_traitsIcEENS_9allocatorIcEEE19__get_short_pointerB7v160006Ev, symObjAddr: 0x1480, symBinAddr: 0x1000058DC, symSize: 0x28 }
  - { offsetInCU: 0xEB0B, offset: 0xEB0B, size: 0x8, addend: 0x0, symName: __ZNKSt3__117__compressed_pairINS_12basic_stringIcNS_11char_traitsIcEENS_9allocatorIcEEE5__repES5_E5firstB7v160006Ev, symObjAddr: 0x14B4, symBinAddr: 0x100005910, symSize: 0x24 }
  - { offsetInCU: 0xEB31, offset: 0xEB31, size: 0x8, addend: 0x0, symName: __ZNKSt3__122__compressed_pair_elemINS_12basic_stringIcNS_11char_traitsIcEENS_9allocatorIcEEE5__repELi0ELb0EE5__getB7v160006Ev, symObjAddr: 0x14D8, symBinAddr: 0x100005934, symSize: 0x14 }
  - { offsetInCU: 0xEB57, offset: 0xEB57, size: 0x8, addend: 0x0, symName: __ZNSt3__114pointer_traitsIPKcE10pointer_toB7v160006ERS1_, symObjAddr: 0x14EC, symBinAddr: 0x100005948, symSize: 0x14 }
  - { offsetInCU: 0xEB7A, offset: 0xEB7A, size: 0x8, addend: 0x0, symName: __ZNSt3__18ios_base8setstateB7v160006Ej, symObjAddr: 0x1500, symBinAddr: 0x10000595C, symSize: 0x34 }
  - { offsetInCU: 0xEBB0, offset: 0xEBB0, size: 0x8, addend: 0x0, symName: __ZNKSt3__113basic_filebufIcNS_11char_traitsIcEEE7is_openEv, symObjAddr: 0x1534, symBinAddr: 0x100005990, symSize: 0x24 }
  - { offsetInCU: 0xEBD8, offset: 0xEBD8, size: 0x8, addend: 0x0, symName: __ZNKSt3__19basic_iosIcNS_11char_traitsIcEEE5widenB7v160006Ec, symObjAddr: 0x1558, symBinAddr: 0x1000059B4, symSize: 0x8C }
  - { offsetInCU: 0xEC45, offset: 0xEC45, size: 0x8, addend: 0x0, symName: __ZNKSt3__15ctypeIcE5widenB7v160006Ec, symObjAddr: 0x1610, symBinAddr: 0x100005A6C, symSize: 0x38 }
  - { offsetInCU: 0xEC7A, offset: 0xEC7A, size: 0x8, addend: 0x0, symName: __ZNSt3__111char_traitsIcE6lengthEPKc, symObjAddr: 0x183C, symBinAddr: 0x100005C98, symSize: 0x48 }
  - { offsetInCU: 0xECBB, offset: 0xECBB, size: 0x8, addend: 0x0, symName: __ZNKSt3__113basic_ostreamIcNS_11char_traitsIcEEE6sentrycvbB7v160006Ev, symObjAddr: 0x1884, symBinAddr: 0x100005CE0, symSize: 0x1C }
  - { offsetInCU: 0xECE1, offset: 0xECE1, size: 0x8, addend: 0x0, symName: __ZNSt3__119ostreambuf_iteratorIcNS_11char_traitsIcEEEC1B7v160006ERNS_13basic_ostreamIcS2_EE, symObjAddr: 0x1AE8, symBinAddr: 0x100005F44, symSize: 0x34 }
  - { offsetInCU: 0xED19, offset: 0xED19, size: 0x8, addend: 0x0, symName: __ZNKSt3__18ios_base5flagsB7v160006Ev, symObjAddr: 0x1B1C, symBinAddr: 0x100005F78, symSize: 0x18 }
  - { offsetInCU: 0xED41, offset: 0xED41, size: 0x8, addend: 0x0, symName: __ZNKSt3__19basic_iosIcNS_11char_traitsIcEEE4fillB7v160006Ev, symObjAddr: 0x1B34, symBinAddr: 0x100005F90, symSize: 0x64 }
  - { offsetInCU: 0xED68, offset: 0xED68, size: 0x8, addend: 0x0, symName: __ZNKSt3__119ostreambuf_iteratorIcNS_11char_traitsIcEEE6failedB7v160006Ev, symObjAddr: 0x1B98, symBinAddr: 0x100005FF4, symSize: 0x24 }
  - { offsetInCU: 0xED8E, offset: 0xED8E, size: 0x8, addend: 0x0, symName: __ZNKSt3__18ios_base5widthB7v160006Ev, symObjAddr: 0x1BBC, symBinAddr: 0x100006018, symSize: 0x18 }
  - { offsetInCU: 0xEDB6, offset: 0xEDB6, size: 0x8, addend: 0x0, symName: __ZNSt3__115basic_streambufIcNS_11char_traitsIcEEE5sputnB7v160006EPKcl, symObjAddr: 0x1BD4, symBinAddr: 0x100006030, symSize: 0x3C }
  - { offsetInCU: 0xEDF8, offset: 0xEDF8, size: 0x8, addend: 0x0, symName: __ZNSt3__112basic_stringIcNS_11char_traitsIcEENS_9allocatorIcEEEC1B7v160006Emc, symObjAddr: 0x1C10, symBinAddr: 0x10000606C, symSize: 0x3C }
  - { offsetInCU: 0xEE40, offset: 0xEE40, size: 0x8, addend: 0x0, symName: __ZNSt3__18ios_base5widthB7v160006El, symObjAddr: 0x1C4C, symBinAddr: 0x1000060A8, symSize: 0x2C }
  - { offsetInCU: 0xEE86, offset: 0xEE86, size: 0x8, addend: 0x0, symName: __ZNSt3__112basic_stringIcNS_11char_traitsIcEENS_9allocatorIcEEEC2B7v160006Emc, symObjAddr: 0x1C78, symBinAddr: 0x1000060D4, symSize: 0x54 }
  - { offsetInCU: 0xEED3, offset: 0xEED3, size: 0x8, addend: 0x0, symName: __ZNSt3__117__compressed_pairINS_12basic_stringIcNS_11char_traitsIcEENS_9allocatorIcEEE5__repES5_EC1B7v160006INS_18__default_init_tagESA_EEOT_OT0_, symObjAddr: 0x1CCC, symBinAddr: 0x100006128, symSize: 0x3C }
  - { offsetInCU: 0xEF2B, offset: 0xEF2B, size: 0x8, addend: 0x0, symName: __ZNSt3__117__compressed_pairINS_12basic_stringIcNS_11char_traitsIcEENS_9allocatorIcEEE5__repES5_EC2B7v160006INS_18__default_init_tagESA_EEOT_OT0_, symObjAddr: 0x1D18, symBinAddr: 0x100006174, symSize: 0x3C }
  - { offsetInCU: 0xEF83, offset: 0xEF83, size: 0x8, addend: 0x0, symName: __ZNSt3__122__compressed_pair_elemINS_12basic_stringIcNS_11char_traitsIcEENS_9allocatorIcEEE5__repELi0ELb0EEC2B7v160006ENS_18__default_init_tagE, symObjAddr: 0x1D54, symBinAddr: 0x1000061B0, symSize: 0x14 }
  - { offsetInCU: 0xEFB8, offset: 0xEFB8, size: 0x8, addend: 0x0, symName: __ZNSt3__122__compressed_pair_elemINS_9allocatorIcEELi1ELb1EEC2B7v160006ENS_18__default_init_tagE, symObjAddr: 0x1D68, symBinAddr: 0x1000061C4, symSize: 0x2C }
  - { offsetInCU: 0xEFED, offset: 0xEFED, size: 0x8, addend: 0x0, symName: __ZNSt3__19allocatorIcEC2B7v160006Ev, symObjAddr: 0x1D94, symBinAddr: 0x1000061F0, symSize: 0x2C }
  - { offsetInCU: 0xF017, offset: 0xF017, size: 0x8, addend: 0x0, symName: __ZNSt3__116__non_trivial_ifILb1ENS_9allocatorIcEEEC2B7v160006Ev, symObjAddr: 0x1DC0, symBinAddr: 0x10000621C, symSize: 0x14 }
  - { offsetInCU: 0xF041, offset: 0xF041, size: 0x8, addend: 0x0, symName: __ZNSt3__119ostreambuf_iteratorIcNS_11char_traitsIcEEEC2B7v160006ERNS_13basic_ostreamIcS2_EE, symObjAddr: 0x1DD4, symBinAddr: 0x100006230, symSize: 0x68 }
  - { offsetInCU: 0xF079, offset: 0xF079, size: 0x8, addend: 0x0, symName: __ZNKSt3__19basic_iosIcNS_11char_traitsIcEEE5rdbufB7v160006Ev, symObjAddr: 0x1E3C, symBinAddr: 0x100006298, symSize: 0x24 }
  - { offsetInCU: 0xF0A0, offset: 0xF0A0, size: 0x8, addend: 0x0, symName: __ZNKSt3__18ios_base5rdbufB7v160006Ev, symObjAddr: 0x1E60, symBinAddr: 0x1000062BC, symSize: 0x18 }
  - { offsetInCU: 0xF0C6, offset: 0xF0C6, size: 0x8, addend: 0x0, symName: __ZNSt3__111char_traitsIcE11eq_int_typeEii, symObjAddr: 0x1E78, symBinAddr: 0x1000062D4, symSize: 0x28 }
  - { offsetInCU: 0xF0F7, offset: 0xF0F7, size: 0x8, addend: 0x0, symName: __ZNKSt3__112basic_stringIcNS_11char_traitsIcEENS_9allocatorIcEEE4sizeB7v160006Ev, symObjAddr: 0x1EC4, symBinAddr: 0x100006320, symSize: 0x54 }
  - { offsetInCU: 0xF11D, offset: 0xF11D, size: 0x8, addend: 0x0, symName: __ZNKSt3__112basic_stringIcNS_11char_traitsIcEENS_9allocatorIcEEE15__get_long_sizeB7v160006Ev, symObjAddr: 0x1F18, symBinAddr: 0x100006374, symSize: 0x28 }
  - { offsetInCU: 0xF143, offset: 0xF143, size: 0x8, addend: 0x0, symName: __ZNKSt3__112basic_stringIcNS_11char_traitsIcEENS_9allocatorIcEEE16__get_short_sizeB7v160006Ev, symObjAddr: 0x1F40, symBinAddr: 0x10000639C, symSize: 0x34 }
  - { offsetInCU: 0xF169, offset: 0xF169, size: 0x8, addend: 0x0, symName: __ZNSt3__16vectorINS0_I5pointNS_9allocatorIS1_EEEENS2_IS4_EEEC2Em, symObjAddr: 0x1F74, symBinAddr: 0x1000063D0, symSize: 0xE8 }
  - { offsetInCU: 0xF1BE, offset: 0xF1BE, size: 0x8, addend: 0x0, symName: __ZNSt3__117__compressed_pairIPNS_6vectorI5pointNS_9allocatorIS2_EEEENS3_IS5_EEEC1B7v160006IDnNS_18__default_init_tagEEEOT_OT0_, symObjAddr: 0x205C, symBinAddr: 0x1000064B8, symSize: 0x3C }
  - { offsetInCU: 0xF216, offset: 0xF216, size: 0x8, addend: 0x0, symName: __ZNSt3__16vectorINS0_I5pointNS_9allocatorIS1_EEEENS2_IS4_EEE16__destroy_vectorC1ERS6_, symObjAddr: 0x20D8, symBinAddr: 0x100006534, symSize: 0x34 }
  - { offsetInCU: 0xF24F, offset: 0xF24F, size: 0x8, addend: 0x0, symName: __ZNSt3__16vectorINS0_I5pointNS_9allocatorIS1_EEEENS2_IS4_EEE11__vallocateB7v160006Em, symObjAddr: 0x211C, symBinAddr: 0x100006578, symSize: 0xB4 }
  - { offsetInCU: 0xF293, offset: 0xF293, size: 0x8, addend: 0x0, symName: __ZNSt3__16vectorINS0_I5pointNS_9allocatorIS1_EEEENS2_IS4_EEE18__construct_at_endEm, symObjAddr: 0x21D0, symBinAddr: 0x10000662C, symSize: 0xD0 }
  - { offsetInCU: 0xF305, offset: 0xF305, size: 0x8, addend: 0x0, symName: __ZNSt3__128__exception_guard_exceptionsINS_6vectorINS1_I5pointNS_9allocatorIS2_EEEENS3_IS5_EEE16__destroy_vectorEE10__completeB7v160006Ev, symObjAddr: 0x22A0, symBinAddr: 0x1000066FC, symSize: 0x1C }
  - { offsetInCU: 0xF32B, offset: 0xF32B, size: 0x8, addend: 0x0, symName: __ZNSt3__128__exception_guard_exceptionsINS_6vectorINS1_I5pointNS_9allocatorIS2_EEEENS3_IS5_EEE16__destroy_vectorEED1B7v160006Ev, symObjAddr: 0x22BC, symBinAddr: 0x100006718, symSize: 0x2C }
  - { offsetInCU: 0xF355, offset: 0xF355, size: 0x8, addend: 0x0, symName: __ZNSt3__117__compressed_pairIPNS_6vectorI5pointNS_9allocatorIS2_EEEENS3_IS5_EEEC2B7v160006IDnNS_18__default_init_tagEEEOT_OT0_, symObjAddr: 0x22E8, symBinAddr: 0x100006744, symSize: 0x40 }
  - { offsetInCU: 0xF3AD, offset: 0xF3AD, size: 0x8, addend: 0x0, symName: __ZNSt3__122__compressed_pair_elemIPNS_6vectorI5pointNS_9allocatorIS2_EEEELi0ELb0EEC2B7v160006IDnvEEOT_, symObjAddr: 0x2328, symBinAddr: 0x100006784, symSize: 0x1C }
  - { offsetInCU: 0xF3EF, offset: 0xF3EF, size: 0x8, addend: 0x0, symName: __ZNSt3__122__compressed_pair_elemINS_9allocatorINS_6vectorI5pointNS1_IS3_EEEEEELi1ELb1EEC2B7v160006ENS_18__default_init_tagE, symObjAddr: 0x2344, symBinAddr: 0x1000067A0, symSize: 0x2C }
  - { offsetInCU: 0xF424, offset: 0xF424, size: 0x8, addend: 0x0, symName: __ZNSt3__19allocatorINS_6vectorI5pointNS0_IS2_EEEEEC2B7v160006Ev, symObjAddr: 0x2370, symBinAddr: 0x1000067CC, symSize: 0x2C }
  - { offsetInCU: 0xF44E, offset: 0xF44E, size: 0x8, addend: 0x0, symName: __ZNSt3__116__non_trivial_ifILb1ENS_9allocatorINS_6vectorI5pointNS1_IS3_EEEEEEEC2B7v160006Ev, symObjAddr: 0x239C, symBinAddr: 0x1000067F8, symSize: 0x14 }
  - { offsetInCU: 0xF478, offset: 0xF478, size: 0x8, addend: 0x0, symName: __ZNSt3__128__exception_guard_exceptionsINS_6vectorINS1_I5pointNS_9allocatorIS2_EEEENS3_IS5_EEE16__destroy_vectorEEC1B7v160006ES8_, symObjAddr: 0x23B0, symBinAddr: 0x10000680C, symSize: 0x34 }
  - { offsetInCU: 0xF4B0, offset: 0xF4B0, size: 0x8, addend: 0x0, symName: __ZNSt3__128__exception_guard_exceptionsINS_6vectorINS1_I5pointNS_9allocatorIS2_EEEENS3_IS5_EEE16__destroy_vectorEEC2B7v160006ES8_, symObjAddr: 0x23E4, symBinAddr: 0x100006840, symSize: 0x24 }
  - { offsetInCU: 0xF4E8, offset: 0xF4E8, size: 0x8, addend: 0x0, symName: __ZNSt3__16vectorINS0_I5pointNS_9allocatorIS1_EEEENS2_IS4_EEE16__destroy_vectorC2ERS6_, symObjAddr: 0x2408, symBinAddr: 0x100006864, symSize: 0x20 }
  - { offsetInCU: 0xF521, offset: 0xF521, size: 0x8, addend: 0x0, symName: __ZNKSt3__16vectorINS0_I5pointNS_9allocatorIS1_EEEENS2_IS4_EEE8max_sizeEv, symObjAddr: 0x2428, symBinAddr: 0x100006884, symSize: 0x74 }
  - { offsetInCU: 0xF548, offset: 0xF548, size: 0x8, addend: 0x0, symName: __ZNKSt3__16vectorINS0_I5pointNS_9allocatorIS1_EEEENS2_IS4_EEE20__throw_length_errorB7v160006Ev, symObjAddr: 0x249C, symBinAddr: 0x1000068F8, symSize: 0x1C }
  - { offsetInCU: 0xF56E, offset: 0xF56E, size: 0x8, addend: 0x0, symName: __ZNSt3__16vectorINS0_I5pointNS_9allocatorIS1_EEEENS2_IS4_EEE7__allocB7v160006Ev, symObjAddr: 0x24F8, symBinAddr: 0x100006954, symSize: 0x28 }
  - { offsetInCU: 0xF594, offset: 0xF594, size: 0x8, addend: 0x0, symName: __ZNSt3__16vectorINS0_I5pointNS_9allocatorIS1_EEEENS2_IS4_EEE9__end_capB7v160006Ev, symObjAddr: 0x2520, symBinAddr: 0x10000697C, symSize: 0x28 }
  - { offsetInCU: 0xF5BA, offset: 0xF5BA, size: 0x8, addend: 0x0, symName: __ZNKSt3__16vectorINS0_I5pointNS_9allocatorIS1_EEEENS2_IS4_EEE14__annotate_newB7v160006Em, symObjAddr: 0x2548, symBinAddr: 0x1000069A4, symSize: 0xC8 }
  - { offsetInCU: 0xF5F9, offset: 0xF5F9, size: 0x8, addend: 0x0, symName: __ZNSt3__116allocator_traitsINS_9allocatorINS_6vectorI5pointNS1_IS3_EEEEEEE8max_sizeB7v160006IS6_vEEmRKS6_, symObjAddr: 0x263C, symBinAddr: 0x100006A98, symSize: 0x24 }
  - { offsetInCU: 0xF627, offset: 0xF627, size: 0x8, addend: 0x0, symName: __ZNKSt3__16vectorINS0_I5pointNS_9allocatorIS1_EEEENS2_IS4_EEE7__allocB7v160006Ev, symObjAddr: 0x2660, symBinAddr: 0x100006ABC, symSize: 0x28 }
  - { offsetInCU: 0xF64D, offset: 0xF64D, size: 0x8, addend: 0x0, symName: __ZNSt3__114numeric_limitsIlE3maxB7v160006Ev, symObjAddr: 0x2688, symBinAddr: 0x100006AE4, symSize: 0x14 }
  - { offsetInCU: 0xF675, offset: 0xF675, size: 0x8, addend: 0x0, symName: __ZNKSt3__16__lessImmEclB7v160006ERKmS3_, symObjAddr: 0x26F0, symBinAddr: 0x100006B4C, symSize: 0x34 }
  - { offsetInCU: 0xF6B7, offset: 0xF6B7, size: 0x8, addend: 0x0, symName: __ZNKSt3__19allocatorINS_6vectorI5pointNS0_IS2_EEEEE8max_sizeB7v160006Ev, symObjAddr: 0x2724, symBinAddr: 0x100006B80, symSize: 0x18 }
  - { offsetInCU: 0xF6DD, offset: 0xF6DD, size: 0x8, addend: 0x0, symName: __ZNKSt3__117__compressed_pairIPNS_6vectorI5pointNS_9allocatorIS2_EEEENS3_IS5_EEE6secondB7v160006Ev, symObjAddr: 0x273C, symBinAddr: 0x100006B98, symSize: 0x24 }
  - { offsetInCU: 0xF703, offset: 0xF703, size: 0x8, addend: 0x0, symName: __ZNKSt3__122__compressed_pair_elemINS_9allocatorINS_6vectorI5pointNS1_IS3_EEEEEELi1ELb1EE5__getB7v160006Ev, symObjAddr: 0x2760, symBinAddr: 0x100006BBC, symSize: 0x14 }
  - { offsetInCU: 0xF729, offset: 0xF729, size: 0x8, addend: 0x0, symName: __ZNSt3__123__libcpp_numeric_limitsIlLb1EE3maxB7v160006Ev, symObjAddr: 0x2774, symBinAddr: 0x100006BD0, symSize: 0x8 }
  - { offsetInCU: 0xF73D, offset: 0xF73D, size: 0x8, addend: 0x0, symName: __ZNSt12length_errorC1B7v160006EPKc, symObjAddr: 0x27E0, symBinAddr: 0x100006C3C, symSize: 0x34 }
  - { offsetInCU: 0xF775, offset: 0xF775, size: 0x8, addend: 0x0, symName: __ZNSt12length_errorC2B7v160006EPKc, symObjAddr: 0x2814, symBinAddr: 0x100006C70, symSize: 0x4C }
  - { offsetInCU: 0xF7AD, offset: 0xF7AD, size: 0x8, addend: 0x0, symName: __ZNSt3__19allocatorINS_6vectorI5pointNS0_IS2_EEEEE8allocateB7v160006Em, symObjAddr: 0x2860, symBinAddr: 0x100006CBC, symSize: 0x8C }
  - { offsetInCU: 0xF7E1, offset: 0xF7E1, size: 0x8, addend: 0x0, symName: __ZNSt3__117__compressed_pairIPNS_6vectorI5pointNS_9allocatorIS2_EEEENS3_IS5_EEE6secondB7v160006Ev, symObjAddr: 0x296C, symBinAddr: 0x100006DC8, symSize: 0x24 }
  - { offsetInCU: 0xF807, offset: 0xF807, size: 0x8, addend: 0x0, symName: __ZNSt3__122__compressed_pair_elemINS_9allocatorINS_6vectorI5pointNS1_IS3_EEEEEELi1ELb1EE5__getB7v160006Ev, symObjAddr: 0x2990, symBinAddr: 0x100006DEC, symSize: 0x14 }
  - { offsetInCU: 0xF82D, offset: 0xF82D, size: 0x8, addend: 0x0, symName: __ZNSt3__117__compressed_pairIPNS_6vectorI5pointNS_9allocatorIS2_EEEENS3_IS5_EEE5firstB7v160006Ev, symObjAddr: 0x29A4, symBinAddr: 0x100006E00, symSize: 0x24 }
  - { offsetInCU: 0xF853, offset: 0xF853, size: 0x8, addend: 0x0, symName: __ZNSt3__122__compressed_pair_elemIPNS_6vectorI5pointNS_9allocatorIS2_EEEELi0ELb0EE5__getB7v160006Ev, symObjAddr: 0x29C8, symBinAddr: 0x100006E24, symSize: 0x14 }
  - { offsetInCU: 0xF879, offset: 0xF879, size: 0x8, addend: 0x0, symName: __ZNKSt3__16vectorINS0_I5pointNS_9allocatorIS1_EEEENS2_IS4_EEE31__annotate_contiguous_containerB7v160006EPKvS8_S8_S8_, symObjAddr: 0x29DC, symBinAddr: 0x100006E38, symSize: 0x20 }
  - { offsetInCU: 0xF8CB, offset: 0xF8CB, size: 0x8, addend: 0x0, symName: __ZNKSt3__16vectorINS0_I5pointNS_9allocatorIS1_EEEENS2_IS4_EEE4dataB7v160006Ev, symObjAddr: 0x29FC, symBinAddr: 0x100006E58, symSize: 0x28 }
  - { offsetInCU: 0xF8F1, offset: 0xF8F1, size: 0x8, addend: 0x0, symName: __ZNKSt3__16vectorINS0_I5pointNS_9allocatorIS1_EEEENS2_IS4_EEE8capacityB7v160006Ev, symObjAddr: 0x2A24, symBinAddr: 0x100006E80, symSize: 0x40 }
  - { offsetInCU: 0xF917, offset: 0xF917, size: 0x8, addend: 0x0, symName: __ZNKSt3__16vectorINS0_I5pointNS_9allocatorIS1_EEEENS2_IS4_EEE9__end_capB7v160006Ev, symObjAddr: 0x2A78, symBinAddr: 0x100006ED4, symSize: 0x28 }
  - { offsetInCU: 0xF93D, offset: 0xF93D, size: 0x8, addend: 0x0, symName: __ZNKSt3__117__compressed_pairIPNS_6vectorI5pointNS_9allocatorIS2_EEEENS3_IS5_EEE5firstB7v160006Ev, symObjAddr: 0x2AA0, symBinAddr: 0x100006EFC, symSize: 0x24 }
  - { offsetInCU: 0xF963, offset: 0xF963, size: 0x8, addend: 0x0, symName: __ZNKSt3__122__compressed_pair_elemIPNS_6vectorI5pointNS_9allocatorIS2_EEEELi0ELb0EE5__getB7v160006Ev, symObjAddr: 0x2AC4, symBinAddr: 0x100006F20, symSize: 0x14 }
  - { offsetInCU: 0xF9A2, offset: 0xF9A2, size: 0x8, addend: 0x0, symName: __ZNSt3__16vectorINS0_I5pointNS_9allocatorIS1_EEEENS2_IS4_EEE21_ConstructTransactionC1B7v160006ERS6_m, symObjAddr: 0x2AD8, symBinAddr: 0x100006F34, symSize: 0x3C }
  - { offsetInCU: 0xF9EA, offset: 0xF9EA, size: 0x8, addend: 0x0, symName: __ZNSt3__116allocator_traitsINS_9allocatorINS_6vectorI5pointNS1_IS3_EEEEEEE9constructB7v160006IS5_JEvEEvRS6_PT_DpOT0_, symObjAddr: 0x2B14, symBinAddr: 0x100006F70, symSize: 0x2C }
  - { offsetInCU: 0xFA2C, offset: 0xFA2C, size: 0x8, addend: 0x0, symName: __ZNSt3__16vectorINS0_I5pointNS_9allocatorIS1_EEEENS2_IS4_EEE21_ConstructTransactionD1B7v160006Ev, symObjAddr: 0x2B40, symBinAddr: 0x100006F9C, symSize: 0x2C }
  - { offsetInCU: 0xFA56, offset: 0xFA56, size: 0x8, addend: 0x0, symName: __ZNSt3__16vectorINS0_I5pointNS_9allocatorIS1_EEEENS2_IS4_EEE21_ConstructTransactionC2B7v160006ERS6_m, symObjAddr: 0x2B6C, symBinAddr: 0x100006FC8, symSize: 0x4C }
  - { offsetInCU: 0xFA9E, offset: 0xFA9E, size: 0x8, addend: 0x0, symName: __ZNSt3__19allocatorINS_6vectorI5pointNS0_IS2_EEEEE9constructB7v160006IS4_JEEEvPT_DpOT0_, symObjAddr: 0x2BB8, symBinAddr: 0x100007014, symSize: 0x28 }
  - { offsetInCU: 0xFAE0, offset: 0xFAE0, size: 0x8, addend: 0x0, symName: __ZNSt3__16vectorI5pointNS_9allocatorIS1_EEEC1B7v160006Ev, symObjAddr: 0x2BE0, symBinAddr: 0x10000703C, symSize: 0x2C }
  - { offsetInCU: 0xFB0A, offset: 0xFB0A, size: 0x8, addend: 0x0, symName: __ZNSt3__16vectorI5pointNS_9allocatorIS1_EEEC2B7v160006Ev, symObjAddr: 0x2C0C, symBinAddr: 0x100007068, symSize: 0x4C }
  - { offsetInCU: 0xFB34, offset: 0xFB34, size: 0x8, addend: 0x0, symName: __ZNSt3__117__compressed_pairIP5pointNS_9allocatorIS1_EEEC1B7v160006IDnNS_18__default_init_tagEEEOT_OT0_, symObjAddr: 0x2C58, symBinAddr: 0x1000070B4, symSize: 0x3C }
  - { offsetInCU: 0xFB8C, offset: 0xFB8C, size: 0x8, addend: 0x0, symName: __ZNSt3__117__compressed_pairIP5pointNS_9allocatorIS1_EEEC2B7v160006IDnNS_18__default_init_tagEEEOT_OT0_, symObjAddr: 0x2CA4, symBinAddr: 0x100007100, symSize: 0x40 }
  - { offsetInCU: 0xFBE4, offset: 0xFBE4, size: 0x8, addend: 0x0, symName: __ZNSt3__122__compressed_pair_elemIP5pointLi0ELb0EEC2B7v160006IDnvEEOT_, symObjAddr: 0x2CE4, symBinAddr: 0x100007140, symSize: 0x1C }
  - { offsetInCU: 0xFC26, offset: 0xFC26, size: 0x8, addend: 0x0, symName: __ZNSt3__122__compressed_pair_elemINS_9allocatorI5pointEELi1ELb1EEC2B7v160006ENS_18__default_init_tagE, symObjAddr: 0x2D00, symBinAddr: 0x10000715C, symSize: 0x2C }
  - { offsetInCU: 0xFC5B, offset: 0xFC5B, size: 0x8, addend: 0x0, symName: __ZNSt3__19allocatorI5pointEC2B7v160006Ev, symObjAddr: 0x2D2C, symBinAddr: 0x100007188, symSize: 0x2C }
  - { offsetInCU: 0xFC85, offset: 0xFC85, size: 0x8, addend: 0x0, symName: __ZNSt3__116__non_trivial_ifILb1ENS_9allocatorI5pointEEEC2B7v160006Ev, symObjAddr: 0x2D58, symBinAddr: 0x1000071B4, symSize: 0x14 }
  - { offsetInCU: 0xFCAF, offset: 0xFCAF, size: 0x8, addend: 0x0, symName: __ZNSt3__16vectorINS0_I5pointNS_9allocatorIS1_EEEENS2_IS4_EEE21_ConstructTransactionD2B7v160006Ev, symObjAddr: 0x2D6C, symBinAddr: 0x1000071C8, symSize: 0x20 }
  - { offsetInCU: 0xFCD9, offset: 0xFCD9, size: 0x8, addend: 0x0, symName: __ZNSt3__128__exception_guard_exceptionsINS_6vectorINS1_I5pointNS_9allocatorIS2_EEEENS3_IS5_EEE16__destroy_vectorEED2B7v160006Ev, symObjAddr: 0x2D8C, symBinAddr: 0x1000071E8, symSize: 0x48 }
  - { offsetInCU: 0xFD03, offset: 0xFD03, size: 0x8, addend: 0x0, symName: __ZNSt3__16vectorINS0_I5pointNS_9allocatorIS1_EEEENS2_IS4_EEE16__destroy_vectorclB7v160006Ev, symObjAddr: 0x2DD4, symBinAddr: 0x100007230, symSize: 0x9C }
  - { offsetInCU: 0xFD29, offset: 0xFD29, size: 0x8, addend: 0x0, symName: __ZNKSt3__16vectorINS0_I5pointNS_9allocatorIS1_EEEENS2_IS4_EEE17__annotate_deleteB7v160006Ev, symObjAddr: 0x2E70, symBinAddr: 0x1000072CC, symSize: 0xD4 }
  - { offsetInCU: 0xFD4F, offset: 0xFD4F, size: 0x8, addend: 0x0, symName: __ZNSt3__16vectorINS0_I5pointNS_9allocatorIS1_EEEENS2_IS4_EEE7__clearB7v160006Ev, symObjAddr: 0x2F54, symBinAddr: 0x1000073B0, symSize: 0x28 }
  - { offsetInCU: 0xFD75, offset: 0xFD75, size: 0x8, addend: 0x0, symName: __ZNSt3__116allocator_traitsINS_9allocatorINS_6vectorI5pointNS1_IS3_EEEEEEE10deallocateB7v160006ERS6_PS5_m, symObjAddr: 0x2F7C, symBinAddr: 0x1000073D8, symSize: 0x34 }
  - { offsetInCU: 0xFDB7, offset: 0xFDB7, size: 0x8, addend: 0x0, symName: __ZNSt3__16vectorINS0_I5pointNS_9allocatorIS1_EEEENS2_IS4_EEE22__base_destruct_at_endB7v160006EPS4_, symObjAddr: 0x2FB0, symBinAddr: 0x10000740C, symSize: 0xA0 }
  - { offsetInCU: 0xFDFB, offset: 0xFDFB, size: 0x8, addend: 0x0, symName: __ZNSt3__116allocator_traitsINS_9allocatorINS_6vectorI5pointNS1_IS3_EEEEEEE7destroyB7v160006IS5_vEEvRS6_PT_, symObjAddr: 0x3050, symBinAddr: 0x1000074AC, symSize: 0x2C }
  - { offsetInCU: 0xFE38, offset: 0xFE38, size: 0x8, addend: 0x0, symName: __ZNSt3__19allocatorINS_6vectorI5pointNS0_IS2_EEEEE7destroyB7v160006EPS4_, symObjAddr: 0x307C, symBinAddr: 0x1000074D8, symSize: 0x28 }
  - { offsetInCU: 0xFE6C, offset: 0xFE6C, size: 0x8, addend: 0x0, symName: __ZNSt3__16vectorI5pointNS_9allocatorIS1_EEED1B7v160006Ev, symObjAddr: 0x30A4, symBinAddr: 0x100007500, symSize: 0x2C }
  - { offsetInCU: 0xFE96, offset: 0xFE96, size: 0x8, addend: 0x0, symName: __ZNSt3__16vectorI5pointNS_9allocatorIS1_EEED2B7v160006Ev, symObjAddr: 0x30D0, symBinAddr: 0x10000752C, symSize: 0x3C }
  - { offsetInCU: 0xFEC0, offset: 0xFEC0, size: 0x8, addend: 0x0, symName: __ZNSt3__16vectorI5pointNS_9allocatorIS1_EEE16__destroy_vectorC1ERS4_, symObjAddr: 0x310C, symBinAddr: 0x100007568, symSize: 0x34 }
  - { offsetInCU: 0xFEF9, offset: 0xFEF9, size: 0x8, addend: 0x0, symName: __ZNSt3__16vectorI5pointNS_9allocatorIS1_EEE16__destroy_vectorclB7v160006Ev, symObjAddr: 0x3140, symBinAddr: 0x10000759C, symSize: 0x9C }
  - { offsetInCU: 0xFF1F, offset: 0xFF1F, size: 0x8, addend: 0x0, symName: __ZNSt3__16vectorI5pointNS_9allocatorIS1_EEE16__destroy_vectorC2ERS4_, symObjAddr: 0x31DC, symBinAddr: 0x100007638, symSize: 0x20 }
  - { offsetInCU: 0xFF58, offset: 0xFF58, size: 0x8, addend: 0x0, symName: __ZNKSt3__16vectorI5pointNS_9allocatorIS1_EEE17__annotate_deleteB7v160006Ev, symObjAddr: 0x31FC, symBinAddr: 0x100007658, symSize: 0xB8 }
  - { offsetInCU: 0xFF7E, offset: 0xFF7E, size: 0x8, addend: 0x0, symName: __ZNSt3__16vectorI5pointNS_9allocatorIS1_EEE7__clearB7v160006Ev, symObjAddr: 0x32C4, symBinAddr: 0x100007720, symSize: 0x28 }
  - { offsetInCU: 0xFFA4, offset: 0xFFA4, size: 0x8, addend: 0x0, symName: __ZNSt3__116allocator_traitsINS_9allocatorI5pointEEE10deallocateB7v160006ERS3_PS2_m, symObjAddr: 0x32EC, symBinAddr: 0x100007748, symSize: 0x34 }
  - { offsetInCU: 0xFFE6, offset: 0xFFE6, size: 0x8, addend: 0x0, symName: __ZNSt3__16vectorI5pointNS_9allocatorIS1_EEE7__allocB7v160006Ev, symObjAddr: 0x3320, symBinAddr: 0x10000777C, symSize: 0x28 }
  - { offsetInCU: 0x1000C, offset: 0x1000C, size: 0x8, addend: 0x0, symName: __ZNKSt3__16vectorI5pointNS_9allocatorIS1_EEE8capacityB7v160006Ev, symObjAddr: 0x3348, symBinAddr: 0x1000077A4, symSize: 0x40 }
  - { offsetInCU: 0x10032, offset: 0x10032, size: 0x8, addend: 0x0, symName: __ZNKSt3__16vectorI5pointNS_9allocatorIS1_EEE31__annotate_contiguous_containerB7v160006EPKvS6_S6_S6_, symObjAddr: 0x3388, symBinAddr: 0x1000077E4, symSize: 0x20 }
  - { offsetInCU: 0x10084, offset: 0x10084, size: 0x8, addend: 0x0, symName: __ZNKSt3__16vectorI5pointNS_9allocatorIS1_EEE4dataB7v160006Ev, symObjAddr: 0x33A8, symBinAddr: 0x100007804, symSize: 0x28 }
  - { offsetInCU: 0x100AA, offset: 0x100AA, size: 0x8, addend: 0x0, symName: __ZNSt3__16vectorI5pointNS_9allocatorIS1_EEE22__base_destruct_at_endB7v160006EPS1_, symObjAddr: 0x33E4, symBinAddr: 0x100007840, symSize: 0xA0 }
  - { offsetInCU: 0x100EE, offset: 0x100EE, size: 0x8, addend: 0x0, symName: __ZNSt3__116allocator_traitsINS_9allocatorI5pointEEE7destroyB7v160006IS2_vEEvRS3_PT_, symObjAddr: 0x3484, symBinAddr: 0x1000078E0, symSize: 0x2C }
  - { offsetInCU: 0x1012B, offset: 0x1012B, size: 0x8, addend: 0x0, symName: __ZNSt3__19allocatorI5pointE7destroyB7v160006EPS1_, symObjAddr: 0x34B0, symBinAddr: 0x10000790C, symSize: 0x14 }
  - { offsetInCU: 0x1015F, offset: 0x1015F, size: 0x8, addend: 0x0, symName: __ZNSt3__19allocatorI5pointE10deallocateB7v160006EPS1_m, symObjAddr: 0x34C4, symBinAddr: 0x100007920, symSize: 0x70 }
  - { offsetInCU: 0x101A1, offset: 0x101A1, size: 0x8, addend: 0x0, symName: __ZNSt3__117__compressed_pairIP5pointNS_9allocatorIS1_EEE6secondB7v160006Ev, symObjAddr: 0x35B0, symBinAddr: 0x100007A0C, symSize: 0x24 }
  - { offsetInCU: 0x101C7, offset: 0x101C7, size: 0x8, addend: 0x0, symName: __ZNSt3__122__compressed_pair_elemINS_9allocatorI5pointEELi1ELb1EE5__getB7v160006Ev, symObjAddr: 0x35D4, symBinAddr: 0x100007A30, symSize: 0x14 }
  - { offsetInCU: 0x101ED, offset: 0x101ED, size: 0x8, addend: 0x0, symName: __ZNKSt3__16vectorI5pointNS_9allocatorIS1_EEE9__end_capB7v160006Ev, symObjAddr: 0x35E8, symBinAddr: 0x100007A44, symSize: 0x28 }
  - { offsetInCU: 0x10213, offset: 0x10213, size: 0x8, addend: 0x0, symName: __ZNKSt3__117__compressed_pairIP5pointNS_9allocatorIS1_EEE5firstB7v160006Ev, symObjAddr: 0x3610, symBinAddr: 0x100007A6C, symSize: 0x24 }
  - { offsetInCU: 0x10239, offset: 0x10239, size: 0x8, addend: 0x0, symName: __ZNKSt3__122__compressed_pair_elemIP5pointLi0ELb0EE5__getB7v160006Ev, symObjAddr: 0x3634, symBinAddr: 0x100007A90, symSize: 0x14 }
  - { offsetInCU: 0x1025F, offset: 0x1025F, size: 0x8, addend: 0x0, symName: __ZNSt3__19allocatorINS_6vectorI5pointNS0_IS2_EEEEE10deallocateB7v160006EPS4_m, symObjAddr: 0x3648, symBinAddr: 0x100007AA4, symSize: 0x74 }
  - { offsetInCU: 0x102A1, offset: 0x102A1, size: 0x8, addend: 0x0, symName: __ZNSt3__16vectorINS0_I5pointNS_9allocatorIS1_EEEENS2_IS4_EEED2B7v160006Ev, symObjAddr: 0x36BC, symBinAddr: 0x100007B18, symSize: 0x3C }
  - { offsetInCU: 0x102CB, offset: 0x102CB, size: 0x8, addend: 0x0, symName: __ZNSt3__16vectorINS0_INS0_I5pointNS_9allocatorIS1_EEEENS2_IS4_EEEENS2_IS6_EEEC2EmRKS6_, symObjAddr: 0x36F8, symBinAddr: 0x100007B54, symSize: 0xF0 }
  - { offsetInCU: 0x1032A, offset: 0x1032A, size: 0x8, addend: 0x0, symName: __ZNSt3__117__compressed_pairIPNS_6vectorINS1_I5pointNS_9allocatorIS2_EEEENS3_IS5_EEEENS3_IS7_EEEC1B7v160006IDnNS_18__default_init_tagEEEOT_OT0_, symObjAddr: 0x37E8, symBinAddr: 0x100007C44, symSize: 0x3C }
  - { offsetInCU: 0x10382, offset: 0x10382, size: 0x8, addend: 0x0, symName: __ZNSt3__16vectorINS0_INS0_I5pointNS_9allocatorIS1_EEEENS2_IS4_EEEENS2_IS6_EEE16__destroy_vectorC1ERS8_, symObjAddr: 0x3864, symBinAddr: 0x100007CC0, symSize: 0x34 }
  - { offsetInCU: 0x103BB, offset: 0x103BB, size: 0x8, addend: 0x0, symName: __ZNSt3__16vectorINS0_INS0_I5pointNS_9allocatorIS1_EEEENS2_IS4_EEEENS2_IS6_EEE11__vallocateB7v160006Em, symObjAddr: 0x38A8, symBinAddr: 0x100007D04, symSize: 0xB4 }
  - { offsetInCU: 0x103FF, offset: 0x103FF, size: 0x8, addend: 0x0, symName: __ZNSt3__16vectorINS0_INS0_I5pointNS_9allocatorIS1_EEEENS2_IS4_EEEENS2_IS6_EEE18__construct_at_endEmRKS6_, symObjAddr: 0x395C, symBinAddr: 0x100007DB8, symSize: 0xD8 }
  - { offsetInCU: 0x10480, offset: 0x10480, size: 0x8, addend: 0x0, symName: __ZNSt3__128__exception_guard_exceptionsINS_6vectorINS1_INS1_I5pointNS_9allocatorIS2_EEEENS3_IS5_EEEENS3_IS7_EEE16__destroy_vectorEE10__completeB7v160006Ev, symObjAddr: 0x3A34, symBinAddr: 0x100007E90, symSize: 0x1C }
  - { offsetInCU: 0x104A6, offset: 0x104A6, size: 0x8, addend: 0x0, symName: __ZNSt3__128__exception_guard_exceptionsINS_6vectorINS1_INS1_I5pointNS_9allocatorIS2_EEEENS3_IS5_EEEENS3_IS7_EEE16__destroy_vectorEED1B7v160006Ev, symObjAddr: 0x3A50, symBinAddr: 0x100007EAC, symSize: 0x2C }
  - { offsetInCU: 0x104D0, offset: 0x104D0, size: 0x8, addend: 0x0, symName: __ZNSt3__117__compressed_pairIPNS_6vectorINS1_I5pointNS_9allocatorIS2_EEEENS3_IS5_EEEENS3_IS7_EEEC2B7v160006IDnNS_18__default_init_tagEEEOT_OT0_, symObjAddr: 0x3A7C, symBinAddr: 0x100007ED8, symSize: 0x40 }
  - { offsetInCU: 0x10528, offset: 0x10528, size: 0x8, addend: 0x0, symName: __ZNSt3__122__compressed_pair_elemIPNS_6vectorINS1_I5pointNS_9allocatorIS2_EEEENS3_IS5_EEEELi0ELb0EEC2B7v160006IDnvEEOT_, symObjAddr: 0x3ABC, symBinAddr: 0x100007F18, symSize: 0x1C }
  - { offsetInCU: 0x1056A, offset: 0x1056A, size: 0x8, addend: 0x0, symName: __ZNSt3__122__compressed_pair_elemINS_9allocatorINS_6vectorINS2_I5pointNS1_IS3_EEEENS1_IS5_EEEEEELi1ELb1EEC2B7v160006ENS_18__default_init_tagE, symObjAddr: 0x3AD8, symBinAddr: 0x100007F34, symSize: 0x2C }
  - { offsetInCU: 0x1059F, offset: 0x1059F, size: 0x8, addend: 0x0, symName: __ZNSt3__19allocatorINS_6vectorINS1_I5pointNS0_IS2_EEEENS0_IS4_EEEEEC2B7v160006Ev, symObjAddr: 0x3B04, symBinAddr: 0x100007F60, symSize: 0x2C }
  - { offsetInCU: 0x105C9, offset: 0x105C9, size: 0x8, addend: 0x0, symName: __ZNSt3__116__non_trivial_ifILb1ENS_9allocatorINS_6vectorINS2_I5pointNS1_IS3_EEEENS1_IS5_EEEEEEEC2B7v160006Ev, symObjAddr: 0x3B30, symBinAddr: 0x100007F8C, symSize: 0x14 }
  - { offsetInCU: 0x105F3, offset: 0x105F3, size: 0x8, addend: 0x0, symName: __ZNSt3__128__exception_guard_exceptionsINS_6vectorINS1_INS1_I5pointNS_9allocatorIS2_EEEENS3_IS5_EEEENS3_IS7_EEE16__destroy_vectorEEC1B7v160006ESA_, symObjAddr: 0x3B44, symBinAddr: 0x100007FA0, symSize: 0x34 }
  - { offsetInCU: 0x1062B, offset: 0x1062B, size: 0x8, addend: 0x0, symName: __ZNSt3__128__exception_guard_exceptionsINS_6vectorINS1_INS1_I5pointNS_9allocatorIS2_EEEENS3_IS5_EEEENS3_IS7_EEE16__destroy_vectorEEC2B7v160006ESA_, symObjAddr: 0x3B78, symBinAddr: 0x100007FD4, symSize: 0x24 }
  - { offsetInCU: 0x10663, offset: 0x10663, size: 0x8, addend: 0x0, symName: __ZNSt3__16vectorINS0_INS0_I5pointNS_9allocatorIS1_EEEENS2_IS4_EEEENS2_IS6_EEE16__destroy_vectorC2ERS8_, symObjAddr: 0x3B9C, symBinAddr: 0x100007FF8, symSize: 0x20 }
  - { offsetInCU: 0x1069C, offset: 0x1069C, size: 0x8, addend: 0x0, symName: __ZNKSt3__16vectorINS0_INS0_I5pointNS_9allocatorIS1_EEEENS2_IS4_EEEENS2_IS6_EEE8max_sizeEv, symObjAddr: 0x3BBC, symBinAddr: 0x100008018, symSize: 0x74 }
  - { offsetInCU: 0x106C3, offset: 0x106C3, size: 0x8, addend: 0x0, symName: __ZNKSt3__16vectorINS0_INS0_I5pointNS_9allocatorIS1_EEEENS2_IS4_EEEENS2_IS6_EEE20__throw_length_errorB7v160006Ev, symObjAddr: 0x3C30, symBinAddr: 0x10000808C, symSize: 0x1C }
  - { offsetInCU: 0x106E9, offset: 0x106E9, size: 0x8, addend: 0x0, symName: __ZNSt3__16vectorINS0_INS0_I5pointNS_9allocatorIS1_EEEENS2_IS4_EEEENS2_IS6_EEE7__allocB7v160006Ev, symObjAddr: 0x3C8C, symBinAddr: 0x1000080E8, symSize: 0x28 }
  - { offsetInCU: 0x1070F, offset: 0x1070F, size: 0x8, addend: 0x0, symName: __ZNSt3__16vectorINS0_INS0_I5pointNS_9allocatorIS1_EEEENS2_IS4_EEEENS2_IS6_EEE9__end_capB7v160006Ev, symObjAddr: 0x3CB4, symBinAddr: 0x100008110, symSize: 0x28 }
  - { offsetInCU: 0x10735, offset: 0x10735, size: 0x8, addend: 0x0, symName: __ZNKSt3__16vectorINS0_INS0_I5pointNS_9allocatorIS1_EEEENS2_IS4_EEEENS2_IS6_EEE14__annotate_newB7v160006Em, symObjAddr: 0x3CDC, symBinAddr: 0x100008138, symSize: 0xC8 }
  - { offsetInCU: 0x10774, offset: 0x10774, size: 0x8, addend: 0x0, symName: __ZNSt3__116allocator_traitsINS_9allocatorINS_6vectorINS2_I5pointNS1_IS3_EEEENS1_IS5_EEEEEEE8max_sizeB7v160006IS8_vEEmRKS8_, symObjAddr: 0x3DA4, symBinAddr: 0x100008200, symSize: 0x24 }
  - { offsetInCU: 0x107A2, offset: 0x107A2, size: 0x8, addend: 0x0, symName: __ZNKSt3__16vectorINS0_INS0_I5pointNS_9allocatorIS1_EEEENS2_IS4_EEEENS2_IS6_EEE7__allocB7v160006Ev, symObjAddr: 0x3DC8, symBinAddr: 0x100008224, symSize: 0x28 }
  - { offsetInCU: 0x107C8, offset: 0x107C8, size: 0x8, addend: 0x0, symName: __ZNKSt3__19allocatorINS_6vectorINS1_I5pointNS0_IS2_EEEENS0_IS4_EEEEE8max_sizeB7v160006Ev, symObjAddr: 0x3DF0, symBinAddr: 0x10000824C, symSize: 0x18 }
  - { offsetInCU: 0x107EE, offset: 0x107EE, size: 0x8, addend: 0x0, symName: __ZNKSt3__117__compressed_pairIPNS_6vectorINS1_I5pointNS_9allocatorIS2_EEEENS3_IS5_EEEENS3_IS7_EEE6secondB7v160006Ev, symObjAddr: 0x3E08, symBinAddr: 0x100008264, symSize: 0x24 }
  - { offsetInCU: 0x10814, offset: 0x10814, size: 0x8, addend: 0x0, symName: __ZNKSt3__122__compressed_pair_elemINS_9allocatorINS_6vectorINS2_I5pointNS1_IS3_EEEENS1_IS5_EEEEEELi1ELb1EE5__getB7v160006Ev, symObjAddr: 0x3E2C, symBinAddr: 0x100008288, symSize: 0x14 }
  - { offsetInCU: 0x1083A, offset: 0x1083A, size: 0x8, addend: 0x0, symName: __ZNSt3__19allocatorINS_6vectorINS1_I5pointNS0_IS2_EEEENS0_IS4_EEEEE8allocateB7v160006Em, symObjAddr: 0x3E40, symBinAddr: 0x10000829C, symSize: 0x8C }
  - { offsetInCU: 0x1086E, offset: 0x1086E, size: 0x8, addend: 0x0, symName: __ZNSt3__117__compressed_pairIPNS_6vectorINS1_I5pointNS_9allocatorIS2_EEEENS3_IS5_EEEENS3_IS7_EEE6secondB7v160006Ev, symObjAddr: 0x3ECC, symBinAddr: 0x100008328, symSize: 0x24 }
  - { offsetInCU: 0x10894, offset: 0x10894, size: 0x8, addend: 0x0, symName: __ZNSt3__122__compressed_pair_elemINS_9allocatorINS_6vectorINS2_I5pointNS1_IS3_EEEENS1_IS5_EEEEEELi1ELb1EE5__getB7v160006Ev, symObjAddr: 0x3EF0, symBinAddr: 0x10000834C, symSize: 0x14 }
  - { offsetInCU: 0x108BA, offset: 0x108BA, size: 0x8, addend: 0x0, symName: __ZNSt3__117__compressed_pairIPNS_6vectorINS1_I5pointNS_9allocatorIS2_EEEENS3_IS5_EEEENS3_IS7_EEE5firstB7v160006Ev, symObjAddr: 0x3F04, symBinAddr: 0x100008360, symSize: 0x24 }
  - { offsetInCU: 0x108E0, offset: 0x108E0, size: 0x8, addend: 0x0, symName: __ZNSt3__122__compressed_pair_elemIPNS_6vectorINS1_I5pointNS_9allocatorIS2_EEEENS3_IS5_EEEELi0ELb0EE5__getB7v160006Ev, symObjAddr: 0x3F28, symBinAddr: 0x100008384, symSize: 0x14 }
  - { offsetInCU: 0x10906, offset: 0x10906, size: 0x8, addend: 0x0, symName: __ZNKSt3__16vectorINS0_INS0_I5pointNS_9allocatorIS1_EEEENS2_IS4_EEEENS2_IS6_EEE31__annotate_contiguous_containerB7v160006EPKvSA_SA_SA_, symObjAddr: 0x3F3C, symBinAddr: 0x100008398, symSize: 0x20 }
  - { offsetInCU: 0x10958, offset: 0x10958, size: 0x8, addend: 0x0, symName: __ZNKSt3__16vectorINS0_INS0_I5pointNS_9allocatorIS1_EEEENS2_IS4_EEEENS2_IS6_EEE4dataB7v160006Ev, symObjAddr: 0x3F5C, symBinAddr: 0x1000083B8, symSize: 0x28 }
  - { offsetInCU: 0x1097E, offset: 0x1097E, size: 0x8, addend: 0x0, symName: __ZNKSt3__16vectorINS0_INS0_I5pointNS_9allocatorIS1_EEEENS2_IS4_EEEENS2_IS6_EEE8capacityB7v160006Ev, symObjAddr: 0x3F84, symBinAddr: 0x1000083E0, symSize: 0x40 }
  - { offsetInCU: 0x109A4, offset: 0x109A4, size: 0x8, addend: 0x0, symName: __ZNKSt3__16vectorINS0_INS0_I5pointNS_9allocatorIS1_EEEENS2_IS4_EEEENS2_IS6_EEE9__end_capB7v160006Ev, symObjAddr: 0x3FD8, symBinAddr: 0x100008434, symSize: 0x28 }
  - { offsetInCU: 0x109CA, offset: 0x109CA, size: 0x8, addend: 0x0, symName: __ZNKSt3__117__compressed_pairIPNS_6vectorINS1_I5pointNS_9allocatorIS2_EEEENS3_IS5_EEEENS3_IS7_EEE5firstB7v160006Ev, symObjAddr: 0x4000, symBinAddr: 0x10000845C, symSize: 0x24 }
  - { offsetInCU: 0x109F0, offset: 0x109F0, size: 0x8, addend: 0x0, symName: __ZNKSt3__122__compressed_pair_elemIPNS_6vectorINS1_I5pointNS_9allocatorIS2_EEEENS3_IS5_EEEELi0ELb0EE5__getB7v160006Ev, symObjAddr: 0x4024, symBinAddr: 0x100008480, symSize: 0x14 }
  - { offsetInCU: 0x10A2F, offset: 0x10A2F, size: 0x8, addend: 0x0, symName: __ZNSt3__16vectorINS0_INS0_I5pointNS_9allocatorIS1_EEEENS2_IS4_EEEENS2_IS6_EEE21_ConstructTransactionC1B7v160006ERS8_m, symObjAddr: 0x4038, symBinAddr: 0x100008494, symSize: 0x3C }
  - { offsetInCU: 0x10A77, offset: 0x10A77, size: 0x8, addend: 0x0, symName: __ZNSt3__116allocator_traitsINS_9allocatorINS_6vectorINS2_I5pointNS1_IS3_EEEENS1_IS5_EEEEEEE9constructB7v160006IS7_JRKS7_EvEEvRS8_PT_DpOT0_, symObjAddr: 0x4074, symBinAddr: 0x1000084D0, symSize: 0x34 }
  - { offsetInCU: 0x10ACE, offset: 0x10ACE, size: 0x8, addend: 0x0, symName: __ZNSt3__16vectorINS0_INS0_I5pointNS_9allocatorIS1_EEEENS2_IS4_EEEENS2_IS6_EEE21_ConstructTransactionD1B7v160006Ev, symObjAddr: 0x40A8, symBinAddr: 0x100008504, symSize: 0x2C }
  - { offsetInCU: 0x10AF8, offset: 0x10AF8, size: 0x8, addend: 0x0, symName: __ZNSt3__16vectorINS0_INS0_I5pointNS_9allocatorIS1_EEEENS2_IS4_EEEENS2_IS6_EEE21_ConstructTransactionC2B7v160006ERS8_m, symObjAddr: 0x40D4, symBinAddr: 0x100008530, symSize: 0x4C }
  - { offsetInCU: 0x10B40, offset: 0x10B40, size: 0x8, addend: 0x0, symName: __ZNSt3__19allocatorINS_6vectorINS1_I5pointNS0_IS2_EEEENS0_IS4_EEEEE9constructB7v160006IS6_JRKS6_EEEvPT_DpOT0_, symObjAddr: 0x4120, symBinAddr: 0x10000857C, symSize: 0x30 }
  - { offsetInCU: 0x10B96, offset: 0x10B96, size: 0x8, addend: 0x0, symName: __ZNSt3__16vectorINS0_I5pointNS_9allocatorIS1_EEEENS2_IS4_EEEC1ERKS6_, symObjAddr: 0x4150, symBinAddr: 0x1000085AC, symSize: 0x34 }
  - { offsetInCU: 0x10BD1, offset: 0x10BD1, size: 0x8, addend: 0x0, symName: __ZNSt3__16vectorINS0_I5pointNS_9allocatorIS1_EEEENS2_IS4_EEEC2ERKS6_, symObjAddr: 0x4184, symBinAddr: 0x1000085E0, symSize: 0x118 }
  - { offsetInCU: 0x10C30, offset: 0x10C30, size: 0x8, addend: 0x0, symName: __ZNSt3__116allocator_traitsINS_9allocatorINS_6vectorI5pointNS1_IS3_EEEEEEE37select_on_container_copy_constructionB7v160006IS6_vvEES6_RKS6_, symObjAddr: 0x429C, symBinAddr: 0x1000086F8, symSize: 0x10 }
  - { offsetInCU: 0x10C64, offset: 0x10C64, size: 0x8, addend: 0x0, symName: __ZNSt3__117__compressed_pairIPNS_6vectorI5pointNS_9allocatorIS2_EEEENS3_IS5_EEEC1B7v160006IDnS7_EEOT_OT0_, symObjAddr: 0x42AC, symBinAddr: 0x100008708, symSize: 0x3C }
  - { offsetInCU: 0x10CBC, offset: 0x10CBC, size: 0x8, addend: 0x0, symName: __ZNSt3__16vectorINS0_I5pointNS_9allocatorIS1_EEEENS2_IS4_EEE18__construct_at_endIPS4_Li0EEEvT_S9_m, symObjAddr: 0x42E8, symBinAddr: 0x100008744, symSize: 0x94 }
  - { offsetInCU: 0x10D2E, offset: 0x10D2E, size: 0x8, addend: 0x0, symName: __ZNSt3__117__compressed_pairIPNS_6vectorI5pointNS_9allocatorIS2_EEEENS3_IS5_EEEC2B7v160006IDnS7_EEOT_OT0_, symObjAddr: 0x437C, symBinAddr: 0x1000087D8, symSize: 0x44 }
  - { offsetInCU: 0x10D86, offset: 0x10D86, size: 0x8, addend: 0x0, symName: __ZNSt3__122__compressed_pair_elemINS_9allocatorINS_6vectorI5pointNS1_IS3_EEEEEELi1ELb1EEC2B7v160006IS6_vEEOT_, symObjAddr: 0x43C0, symBinAddr: 0x10000881C, symSize: 0x18 }
  - { offsetInCU: 0x10DC8, offset: 0x10DC8, size: 0x8, addend: 0x0, symName: __ZNSt3__129_AllocatorDestroyRangeReverseINS_9allocatorINS_6vectorI5pointNS1_IS3_EEEEEEPS5_EC1B7v160006ERS6_RS7_SA_, symObjAddr: 0x4520, symBinAddr: 0x10000897C, symSize: 0x44 }
  - { offsetInCU: 0x10E1F, offset: 0x10E1F, size: 0x8, addend: 0x0, symName: __ZNSt3__116allocator_traitsINS_9allocatorINS_6vectorI5pointNS1_IS3_EEEEEEE9constructB7v160006IS5_JRS5_EvEEvRS6_PT_DpOT0_, symObjAddr: 0x4564, symBinAddr: 0x1000089C0, symSize: 0x34 }
  - { offsetInCU: 0x10E76, offset: 0x10E76, size: 0x8, addend: 0x0, symName: __ZNSt3__128__exception_guard_exceptionsINS_29_AllocatorDestroyRangeReverseINS_9allocatorINS_6vectorI5pointNS2_IS4_EEEEEEPS6_EEE10__completeB7v160006Ev, symObjAddr: 0x4598, symBinAddr: 0x1000089F4, symSize: 0x1C }
  - { offsetInCU: 0x10E9C, offset: 0x10E9C, size: 0x8, addend: 0x0, symName: __ZNSt3__128__exception_guard_exceptionsINS_29_AllocatorDestroyRangeReverseINS_9allocatorINS_6vectorI5pointNS2_IS4_EEEEEEPS6_EEED1B7v160006Ev, symObjAddr: 0x45B4, symBinAddr: 0x100008A10, symSize: 0x2C }
  - { offsetInCU: 0x10EC6, offset: 0x10EC6, size: 0x8, addend: 0x0, symName: __ZNSt3__128__exception_guard_exceptionsINS_29_AllocatorDestroyRangeReverseINS_9allocatorINS_6vectorI5pointNS2_IS4_EEEEEEPS6_EEEC1B7v160006ES9_, symObjAddr: 0x45E0, symBinAddr: 0x100008A3C, symSize: 0x34 }
  - { offsetInCU: 0x10EFF, offset: 0x10EFF, size: 0x8, addend: 0x0, symName: __ZNSt3__128__exception_guard_exceptionsINS_29_AllocatorDestroyRangeReverseINS_9allocatorINS_6vectorI5pointNS2_IS4_EEEEEEPS6_EEEC2B7v160006ES9_, symObjAddr: 0x4614, symBinAddr: 0x100008A70, symSize: 0x30 }
  - { offsetInCU: 0x10F38, offset: 0x10F38, size: 0x8, addend: 0x0, symName: __ZNSt3__129_AllocatorDestroyRangeReverseINS_9allocatorINS_6vectorI5pointNS1_IS3_EEEEEEPS5_EC2B7v160006ERS6_RS7_SA_, symObjAddr: 0x4644, symBinAddr: 0x100008AA0, symSize: 0x38 }
  - { offsetInCU: 0x10F8F, offset: 0x10F8F, size: 0x8, addend: 0x0, symName: __ZNSt3__19allocatorINS_6vectorI5pointNS0_IS2_EEEEE9constructB7v160006IS4_JRS4_EEEvPT_DpOT0_, symObjAddr: 0x467C, symBinAddr: 0x100008AD8, symSize: 0x30 }
  - { offsetInCU: 0x10FE5, offset: 0x10FE5, size: 0x8, addend: 0x0, symName: __ZNSt3__16vectorI5pointNS_9allocatorIS1_EEEC1ERKS4_, symObjAddr: 0x46AC, symBinAddr: 0x100008B08, symSize: 0x34 }
  - { offsetInCU: 0x11020, offset: 0x11020, size: 0x8, addend: 0x0, symName: __ZNSt3__16vectorI5pointNS_9allocatorIS1_EEEC2ERKS4_, symObjAddr: 0x46E0, symBinAddr: 0x100008B3C, symSize: 0x118 }
  - { offsetInCU: 0x11089, offset: 0x11089, size: 0x8, addend: 0x0, symName: __ZNSt3__116allocator_traitsINS_9allocatorI5pointEEE37select_on_container_copy_constructionB7v160006IS3_vvEES3_RKS3_, symObjAddr: 0x47F8, symBinAddr: 0x100008C54, symSize: 0x10 }
  - { offsetInCU: 0x110B8, offset: 0x110B8, size: 0x8, addend: 0x0, symName: __ZNKSt3__16vectorI5pointNS_9allocatorIS1_EEE7__allocB7v160006Ev, symObjAddr: 0x4808, symBinAddr: 0x100008C64, symSize: 0x28 }
  - { offsetInCU: 0x110E3, offset: 0x110E3, size: 0x8, addend: 0x0, symName: __ZNSt3__117__compressed_pairIP5pointNS_9allocatorIS1_EEEC1B7v160006IDnS4_EEOT_OT0_, symObjAddr: 0x4830, symBinAddr: 0x100008C8C, symSize: 0x3C }
  - { offsetInCU: 0x1113B, offset: 0x1113B, size: 0x8, addend: 0x0, symName: __ZNSt3__16vectorI5pointNS_9allocatorIS1_EEE11__vallocateB7v160006Em, symObjAddr: 0x48AC, symBinAddr: 0x100008D08, symSize: 0xAC }
  - { offsetInCU: 0x1117F, offset: 0x1117F, size: 0x8, addend: 0x0, symName: __ZNSt3__16vectorI5pointNS_9allocatorIS1_EEE18__construct_at_endIPS1_Li0EEEvT_S7_m, symObjAddr: 0x4958, symBinAddr: 0x100008DB4, symSize: 0x94 }
  - { offsetInCU: 0x111F1, offset: 0x111F1, size: 0x8, addend: 0x0, symName: __ZNSt3__128__exception_guard_exceptionsINS_6vectorI5pointNS_9allocatorIS2_EEE16__destroy_vectorEE10__completeB7v160006Ev, symObjAddr: 0x49EC, symBinAddr: 0x100008E48, symSize: 0x1C }
  - { offsetInCU: 0x11217, offset: 0x11217, size: 0x8, addend: 0x0, symName: __ZNSt3__128__exception_guard_exceptionsINS_6vectorI5pointNS_9allocatorIS2_EEE16__destroy_vectorEED1B7v160006Ev, symObjAddr: 0x4A08, symBinAddr: 0x100008E64, symSize: 0x2C }
  - { offsetInCU: 0x11241, offset: 0x11241, size: 0x8, addend: 0x0, symName: __ZNKSt3__117__compressed_pairIP5pointNS_9allocatorIS1_EEE6secondB7v160006Ev, symObjAddr: 0x4A34, symBinAddr: 0x100008E90, symSize: 0x24 }
  - { offsetInCU: 0x11267, offset: 0x11267, size: 0x8, addend: 0x0, symName: __ZNKSt3__122__compressed_pair_elemINS_9allocatorI5pointEELi1ELb1EE5__getB7v160006Ev, symObjAddr: 0x4A58, symBinAddr: 0x100008EB4, symSize: 0x14 }
  - { offsetInCU: 0x1128D, offset: 0x1128D, size: 0x8, addend: 0x0, symName: __ZNSt3__117__compressed_pairIP5pointNS_9allocatorIS1_EEEC2B7v160006IDnS4_EEOT_OT0_, symObjAddr: 0x4A6C, symBinAddr: 0x100008EC8, symSize: 0x44 }
  - { offsetInCU: 0x112E5, offset: 0x112E5, size: 0x8, addend: 0x0, symName: __ZNSt3__122__compressed_pair_elemINS_9allocatorI5pointEELi1ELb1EEC2B7v160006IS3_vEEOT_, symObjAddr: 0x4AB0, symBinAddr: 0x100008F0C, symSize: 0x18 }
  - { offsetInCU: 0x11327, offset: 0x11327, size: 0x8, addend: 0x0, symName: __ZNSt3__128__exception_guard_exceptionsINS_6vectorI5pointNS_9allocatorIS2_EEE16__destroy_vectorEEC1B7v160006ES6_, symObjAddr: 0x4AC8, symBinAddr: 0x100008F24, symSize: 0x34 }
  - { offsetInCU: 0x1135F, offset: 0x1135F, size: 0x8, addend: 0x0, symName: __ZNSt3__128__exception_guard_exceptionsINS_6vectorI5pointNS_9allocatorIS2_EEE16__destroy_vectorEEC2B7v160006ES6_, symObjAddr: 0x4AFC, symBinAddr: 0x100008F58, symSize: 0x24 }
  - { offsetInCU: 0x11397, offset: 0x11397, size: 0x8, addend: 0x0, symName: __ZNKSt3__16vectorI5pointNS_9allocatorIS1_EEE8max_sizeEv, symObjAddr: 0x4B20, symBinAddr: 0x100008F7C, symSize: 0x74 }
  - { offsetInCU: 0x113BE, offset: 0x113BE, size: 0x8, addend: 0x0, symName: __ZNKSt3__16vectorI5pointNS_9allocatorIS1_EEE20__throw_length_errorB7v160006Ev, symObjAddr: 0x4B94, symBinAddr: 0x100008FF0, symSize: 0x1C }
  - { offsetInCU: 0x113E4, offset: 0x113E4, size: 0x8, addend: 0x0, symName: __ZNSt3__16vectorI5pointNS_9allocatorIS1_EEE9__end_capB7v160006Ev, symObjAddr: 0x4BF0, symBinAddr: 0x10000904C, symSize: 0x28 }
  - { offsetInCU: 0x1140A, offset: 0x1140A, size: 0x8, addend: 0x0, symName: __ZNKSt3__16vectorI5pointNS_9allocatorIS1_EEE14__annotate_newB7v160006Em, symObjAddr: 0x4C18, symBinAddr: 0x100009074, symSize: 0xAC }
  - { offsetInCU: 0x1143F, offset: 0x1143F, size: 0x8, addend: 0x0, symName: __ZNSt3__116allocator_traitsINS_9allocatorI5pointEEE8max_sizeB7v160006IS3_vEEmRKS3_, symObjAddr: 0x4CC4, symBinAddr: 0x100009120, symSize: 0x24 }
  - { offsetInCU: 0x1146D, offset: 0x1146D, size: 0x8, addend: 0x0, symName: __ZNKSt3__19allocatorI5pointE8max_sizeB7v160006Ev, symObjAddr: 0x4CE8, symBinAddr: 0x100009144, symSize: 0x14 }
  - { offsetInCU: 0x11493, offset: 0x11493, size: 0x8, addend: 0x0, symName: __ZNSt3__19allocatorI5pointE8allocateB7v160006Em, symObjAddr: 0x4CFC, symBinAddr: 0x100009158, symSize: 0x84 }
  - { offsetInCU: 0x114C7, offset: 0x114C7, size: 0x8, addend: 0x0, symName: __ZNSt3__117__compressed_pairIP5pointNS_9allocatorIS1_EEE5firstB7v160006Ev, symObjAddr: 0x4D80, symBinAddr: 0x1000091DC, symSize: 0x24 }
  - { offsetInCU: 0x114ED, offset: 0x114ED, size: 0x8, addend: 0x0, symName: __ZNSt3__122__compressed_pair_elemIP5pointLi0ELb0EE5__getB7v160006Ev, symObjAddr: 0x4DA4, symBinAddr: 0x100009200, symSize: 0x14 }
  - { offsetInCU: 0x1152C, offset: 0x1152C, size: 0x8, addend: 0x0, symName: __ZNSt3__16vectorI5pointNS_9allocatorIS1_EEE21_ConstructTransactionC1B7v160006ERS4_m, symObjAddr: 0x4DB8, symBinAddr: 0x100009214, symSize: 0x3C }
  - { offsetInCU: 0x11574, offset: 0x11574, size: 0x8, addend: 0x0, symName: __ZNSt3__16vectorI5pointNS_9allocatorIS1_EEE21_ConstructTransactionD1B7v160006Ev, symObjAddr: 0x4EF0, symBinAddr: 0x10000934C, symSize: 0x2C }
  - { offsetInCU: 0x1159E, offset: 0x1159E, size: 0x8, addend: 0x0, symName: __ZNSt3__16vectorI5pointNS_9allocatorIS1_EEE21_ConstructTransactionC2B7v160006ERS4_m, symObjAddr: 0x4F1C, symBinAddr: 0x100009378, symSize: 0x44 }
  - { offsetInCU: 0x115E6, offset: 0x115E6, size: 0x8, addend: 0x0, symName: __ZNSt3__129_AllocatorDestroyRangeReverseINS_9allocatorI5pointEEPS2_EC1B7v160006ERS3_RS4_S7_, symObjAddr: 0x4FAC, symBinAddr: 0x100009408, symSize: 0x44 }
  - { offsetInCU: 0x1163D, offset: 0x1163D, size: 0x8, addend: 0x0, symName: __ZNSt3__116allocator_traitsINS_9allocatorI5pointEEE9constructB7v160006IS2_JRS2_EvEEvRS3_PT_DpOT0_, symObjAddr: 0x4FF0, symBinAddr: 0x10000944C, symSize: 0x34 }
  - { offsetInCU: 0x11694, offset: 0x11694, size: 0x8, addend: 0x0, symName: __ZNSt3__128__exception_guard_exceptionsINS_29_AllocatorDestroyRangeReverseINS_9allocatorI5pointEEPS3_EEE10__completeB7v160006Ev, symObjAddr: 0x5024, symBinAddr: 0x100009480, symSize: 0x1C }
  - { offsetInCU: 0x116BA, offset: 0x116BA, size: 0x8, addend: 0x0, symName: __ZNSt3__128__exception_guard_exceptionsINS_29_AllocatorDestroyRangeReverseINS_9allocatorI5pointEEPS3_EEED1B7v160006Ev, symObjAddr: 0x5040, symBinAddr: 0x10000949C, symSize: 0x2C }
  - { offsetInCU: 0x116E4, offset: 0x116E4, size: 0x8, addend: 0x0, symName: __ZNSt3__128__exception_guard_exceptionsINS_29_AllocatorDestroyRangeReverseINS_9allocatorI5pointEEPS3_EEEC1B7v160006ES6_, symObjAddr: 0x506C, symBinAddr: 0x1000094C8, symSize: 0x34 }
  - { offsetInCU: 0x1171D, offset: 0x1171D, size: 0x8, addend: 0x0, symName: __ZNSt3__128__exception_guard_exceptionsINS_29_AllocatorDestroyRangeReverseINS_9allocatorI5pointEEPS3_EEEC2B7v160006ES6_, symObjAddr: 0x50A0, symBinAddr: 0x1000094FC, symSize: 0x30 }
  - { offsetInCU: 0x11756, offset: 0x11756, size: 0x8, addend: 0x0, symName: __ZNSt3__129_AllocatorDestroyRangeReverseINS_9allocatorI5pointEEPS2_EC2B7v160006ERS3_RS4_S7_, symObjAddr: 0x50D0, symBinAddr: 0x10000952C, symSize: 0x38 }
  - { offsetInCU: 0x117AD, offset: 0x117AD, size: 0x8, addend: 0x0, symName: __ZNSt3__19allocatorI5pointE9constructB7v160006IS1_JRS1_EEEvPT_DpOT0_, symObjAddr: 0x5108, symBinAddr: 0x100009564, symSize: 0x28 }
  - { offsetInCU: 0x11803, offset: 0x11803, size: 0x8, addend: 0x0, symName: __ZNSt3__128__exception_guard_exceptionsINS_29_AllocatorDestroyRangeReverseINS_9allocatorI5pointEEPS3_EEED2B7v160006Ev, symObjAddr: 0x5130, symBinAddr: 0x10000958C, symSize: 0x48 }
  - { offsetInCU: 0x1182D, offset: 0x1182D, size: 0x8, addend: 0x0, symName: __ZNKSt3__129_AllocatorDestroyRangeReverseINS_9allocatorI5pointEEPS2_EclB7v160006Ev, symObjAddr: 0x5178, symBinAddr: 0x1000095D4, symSize: 0x68 }
  - { offsetInCU: 0x11853, offset: 0x11853, size: 0x8, addend: 0x0, symName: __ZNSt3__116reverse_iteratorIP5pointEC1B7v160006ES2_, symObjAddr: 0x5250, symBinAddr: 0x1000096AC, symSize: 0x34 }
  - { offsetInCU: 0x1188B, offset: 0x1188B, size: 0x8, addend: 0x0, symName: __ZNSt3__116reverse_iteratorIP5pointEppB7v160006Ev, symObjAddr: 0x52F0, symBinAddr: 0x10000974C, symSize: 0x20 }
  - { offsetInCU: 0x118B1, offset: 0x118B1, size: 0x8, addend: 0x0, symName: __ZNKSt3__116reverse_iteratorIP5pointE4baseB7v160006Ev, symObjAddr: 0x5310, symBinAddr: 0x10000976C, symSize: 0x18 }
  - { offsetInCU: 0x118DC, offset: 0x118DC, size: 0x8, addend: 0x0, symName: __ZNSt3__119__to_address_helperINS_16reverse_iteratorIP5pointEEvE6__callB7v160006ERKS4_, symObjAddr: 0x5328, symBinAddr: 0x100009784, symSize: 0x4C }
  - { offsetInCU: 0x118FF, offset: 0x118FF, size: 0x8, addend: 0x0, symName: __ZNKSt3__116reverse_iteratorIP5pointEptB7v160006Ev, symObjAddr: 0x5374, symBinAddr: 0x1000097D0, symSize: 0x24 }
  - { offsetInCU: 0x11925, offset: 0x11925, size: 0x8, addend: 0x0, symName: __ZNKSt3__116reverse_iteratorIP5pointEdeB7v160006Ev, symObjAddr: 0x5398, symBinAddr: 0x1000097F4, symSize: 0x28 }
  - { offsetInCU: 0x11959, offset: 0x11959, size: 0x8, addend: 0x0, symName: __ZNSt3__116reverse_iteratorIP5pointEC2B7v160006ES2_, symObjAddr: 0x53C0, symBinAddr: 0x10000981C, symSize: 0x28 }
  - { offsetInCU: 0x11991, offset: 0x11991, size: 0x8, addend: 0x0, symName: __ZNSt3__16vectorI5pointNS_9allocatorIS1_EEE21_ConstructTransactionD2B7v160006Ev, symObjAddr: 0x53E8, symBinAddr: 0x100009844, symSize: 0x20 }
  - { offsetInCU: 0x119BB, offset: 0x119BB, size: 0x8, addend: 0x0, symName: __ZNSt3__128__exception_guard_exceptionsINS_6vectorI5pointNS_9allocatorIS2_EEE16__destroy_vectorEED2B7v160006Ev, symObjAddr: 0x5408, symBinAddr: 0x100009864, symSize: 0x48 }
  - { offsetInCU: 0x119E5, offset: 0x119E5, size: 0x8, addend: 0x0, symName: __ZNSt3__128__exception_guard_exceptionsINS_29_AllocatorDestroyRangeReverseINS_9allocatorINS_6vectorI5pointNS2_IS4_EEEEEEPS6_EEED2B7v160006Ev, symObjAddr: 0x5450, symBinAddr: 0x1000098AC, symSize: 0x48 }
  - { offsetInCU: 0x11A0F, offset: 0x11A0F, size: 0x8, addend: 0x0, symName: __ZNKSt3__129_AllocatorDestroyRangeReverseINS_9allocatorINS_6vectorI5pointNS1_IS3_EEEEEEPS5_EclB7v160006Ev, symObjAddr: 0x5498, symBinAddr: 0x1000098F4, symSize: 0x68 }
  - { offsetInCU: 0x11A35, offset: 0x11A35, size: 0x8, addend: 0x0, symName: __ZNSt3__116reverse_iteratorIPNS_6vectorI5pointNS_9allocatorIS2_EEEEEC1B7v160006ES6_, symObjAddr: 0x5570, symBinAddr: 0x1000099CC, symSize: 0x34 }
  - { offsetInCU: 0x11A6D, offset: 0x11A6D, size: 0x8, addend: 0x0, symName: __ZNSt3__116reverse_iteratorIPNS_6vectorI5pointNS_9allocatorIS2_EEEEEppB7v160006Ev, symObjAddr: 0x5610, symBinAddr: 0x100009A6C, symSize: 0x20 }
  - { offsetInCU: 0x11A93, offset: 0x11A93, size: 0x8, addend: 0x0, symName: __ZNKSt3__116reverse_iteratorIPNS_6vectorI5pointNS_9allocatorIS2_EEEEE4baseB7v160006Ev, symObjAddr: 0x5630, symBinAddr: 0x100009A8C, symSize: 0x18 }
  - { offsetInCU: 0x11ABE, offset: 0x11ABE, size: 0x8, addend: 0x0, symName: __ZNSt3__119__to_address_helperINS_16reverse_iteratorIPNS_6vectorI5pointNS_9allocatorIS3_EEEEEEvE6__callB7v160006ERKS8_, symObjAddr: 0x5648, symBinAddr: 0x100009AA4, symSize: 0x4C }
  - { offsetInCU: 0x11AE1, offset: 0x11AE1, size: 0x8, addend: 0x0, symName: __ZNKSt3__116reverse_iteratorIPNS_6vectorI5pointNS_9allocatorIS2_EEEEEptB7v160006Ev, symObjAddr: 0x5694, symBinAddr: 0x100009AF0, symSize: 0x24 }
  - { offsetInCU: 0x11B07, offset: 0x11B07, size: 0x8, addend: 0x0, symName: __ZNKSt3__116reverse_iteratorIPNS_6vectorI5pointNS_9allocatorIS2_EEEEEdeB7v160006Ev, symObjAddr: 0x56B8, symBinAddr: 0x100009B14, symSize: 0x28 }
  - { offsetInCU: 0x11B3B, offset: 0x11B3B, size: 0x8, addend: 0x0, symName: __ZNSt3__116reverse_iteratorIPNS_6vectorI5pointNS_9allocatorIS2_EEEEEC2B7v160006ES6_, symObjAddr: 0x56E0, symBinAddr: 0x100009B3C, symSize: 0x28 }
  - { offsetInCU: 0x11B73, offset: 0x11B73, size: 0x8, addend: 0x0, symName: __ZNSt3__16vectorINS0_INS0_I5pointNS_9allocatorIS1_EEEENS2_IS4_EEEENS2_IS6_EEE21_ConstructTransactionD2B7v160006Ev, symObjAddr: 0x5708, symBinAddr: 0x100009B64, symSize: 0x20 }
  - { offsetInCU: 0x11B9D, offset: 0x11B9D, size: 0x8, addend: 0x0, symName: __ZNSt3__128__exception_guard_exceptionsINS_6vectorINS1_INS1_I5pointNS_9allocatorIS2_EEEENS3_IS5_EEEENS3_IS7_EEE16__destroy_vectorEED2B7v160006Ev, symObjAddr: 0x5728, symBinAddr: 0x100009B84, symSize: 0x48 }
  - { offsetInCU: 0x11BC7, offset: 0x11BC7, size: 0x8, addend: 0x0, symName: __ZNSt3__16vectorINS0_INS0_I5pointNS_9allocatorIS1_EEEENS2_IS4_EEEENS2_IS6_EEE16__destroy_vectorclB7v160006Ev, symObjAddr: 0x5770, symBinAddr: 0x100009BCC, symSize: 0x9C }
  - { offsetInCU: 0x11BED, offset: 0x11BED, size: 0x8, addend: 0x0, symName: __ZNKSt3__16vectorINS0_INS0_I5pointNS_9allocatorIS1_EEEENS2_IS4_EEEENS2_IS6_EEE17__annotate_deleteB7v160006Ev, symObjAddr: 0x580C, symBinAddr: 0x100009C68, symSize: 0xD4 }
  - { offsetInCU: 0x11C13, offset: 0x11C13, size: 0x8, addend: 0x0, symName: __ZNSt3__16vectorINS0_INS0_I5pointNS_9allocatorIS1_EEEENS2_IS4_EEEENS2_IS6_EEE7__clearB7v160006Ev, symObjAddr: 0x58F0, symBinAddr: 0x100009D4C, symSize: 0x28 }
  - { offsetInCU: 0x11C39, offset: 0x11C39, size: 0x8, addend: 0x0, symName: __ZNSt3__116allocator_traitsINS_9allocatorINS_6vectorINS2_I5pointNS1_IS3_EEEENS1_IS5_EEEEEEE10deallocateB7v160006ERS8_PS7_m, symObjAddr: 0x5918, symBinAddr: 0x100009D74, symSize: 0x34 }
  - { offsetInCU: 0x11C7B, offset: 0x11C7B, size: 0x8, addend: 0x0, symName: __ZNSt3__16vectorINS0_INS0_I5pointNS_9allocatorIS1_EEEENS2_IS4_EEEENS2_IS6_EEE22__base_destruct_at_endB7v160006EPS6_, symObjAddr: 0x594C, symBinAddr: 0x100009DA8, symSize: 0xA0 }
  - { offsetInCU: 0x11CBF, offset: 0x11CBF, size: 0x8, addend: 0x0, symName: __ZNSt3__116allocator_traitsINS_9allocatorINS_6vectorINS2_I5pointNS1_IS3_EEEENS1_IS5_EEEEEEE7destroyB7v160006IS7_vEEvRS8_PT_, symObjAddr: 0x59EC, symBinAddr: 0x100009E48, symSize: 0x2C }
  - { offsetInCU: 0x11CFC, offset: 0x11CFC, size: 0x8, addend: 0x0, symName: __ZNSt3__19allocatorINS_6vectorINS1_I5pointNS0_IS2_EEEENS0_IS4_EEEEE7destroyB7v160006EPS6_, symObjAddr: 0x5A18, symBinAddr: 0x100009E74, symSize: 0x28 }
  - { offsetInCU: 0x11D30, offset: 0x11D30, size: 0x8, addend: 0x0, symName: __ZNSt3__19allocatorINS_6vectorINS1_I5pointNS0_IS2_EEEENS0_IS4_EEEEE10deallocateB7v160006EPS6_m, symObjAddr: 0x5A40, symBinAddr: 0x100009E9C, symSize: 0x74 }
  - { offsetInCU: 0x11D72, offset: 0x11D72, size: 0x8, addend: 0x0, symName: __ZNSt3__16vectorINS0_INS0_I5pointNS_9allocatorIS1_EEEENS2_IS4_EEEENS2_IS6_EEED2B7v160006Ev, symObjAddr: 0x5AB4, symBinAddr: 0x100009F10, symSize: 0x3C }
  - { offsetInCU: 0x11D9C, offset: 0x11D9C, size: 0x8, addend: 0x0, symName: __ZNSt3__16vectorI5pointNS_9allocatorIS1_EEE22__construct_one_at_endB7v160006IJRKS1_EEEvDpOT_, symObjAddr: 0x5AF0, symBinAddr: 0x100009F4C, symSize: 0x98 }
  - { offsetInCU: 0x11DEB, offset: 0x11DEB, size: 0x8, addend: 0x0, symName: __ZNSt3__16vectorI5pointNS_9allocatorIS1_EEE21__push_back_slow_pathIRKS1_EEvOT_, symObjAddr: 0x5B88, symBinAddr: 0x100009FE4, symSize: 0xE0 }
  - { offsetInCU: 0x11E48, offset: 0x11E48, size: 0x8, addend: 0x0, symName: __ZNSt3__116allocator_traitsINS_9allocatorI5pointEEE9constructB7v160006IS2_JRKS2_EvEEvRS3_PT_DpOT0_, symObjAddr: 0x5C68, symBinAddr: 0x10000A0C4, symSize: 0x34 }
  - { offsetInCU: 0x11E9F, offset: 0x11E9F, size: 0x8, addend: 0x0, symName: __ZNSt3__19allocatorI5pointE9constructB7v160006IS1_JRKS1_EEEvPT_DpOT0_, symObjAddr: 0x5C9C, symBinAddr: 0x10000A0F8, symSize: 0x28 }
  - { offsetInCU: 0x11EF5, offset: 0x11EF5, size: 0x8, addend: 0x0, symName: __ZNKSt3__16vectorI5pointNS_9allocatorIS1_EEE11__recommendB7v160006Em, symObjAddr: 0x5CC4, symBinAddr: 0x10000A120, symSize: 0xB4 }
  - { offsetInCU: 0x11F49, offset: 0x11F49, size: 0x8, addend: 0x0, symName: __ZNSt3__114__split_bufferI5pointRNS_9allocatorIS1_EEEC1EmmS4_, symObjAddr: 0x5D78, symBinAddr: 0x10000A1D4, symSize: 0x44 }
  - { offsetInCU: 0x11F9F, offset: 0x11F9F, size: 0x8, addend: 0x0, symName: __ZNSt3__114__split_bufferI5pointRNS_9allocatorIS1_EEED1Ev, symObjAddr: 0x5ED4, symBinAddr: 0x10000A330, symSize: 0x2C }
  - { offsetInCU: 0x11FCB, offset: 0x11FCB, size: 0x8, addend: 0x0, symName: __ZNSt3__114__split_bufferI5pointRNS_9allocatorIS1_EEEC2EmmS4_, symObjAddr: 0x5F80, symBinAddr: 0x10000A3DC, symSize: 0xD4 }
  - { offsetInCU: 0x1203F, offset: 0x1203F, size: 0x8, addend: 0x0, symName: __ZNSt3__117__compressed_pairIP5pointRNS_9allocatorIS1_EEEC1B7v160006IDnS5_EEOT_OT0_, symObjAddr: 0x6054, symBinAddr: 0x10000A4B0, symSize: 0x3C }
  - { offsetInCU: 0x12097, offset: 0x12097, size: 0x8, addend: 0x0, symName: __ZNSt3__114__split_bufferI5pointRNS_9allocatorIS1_EEE7__allocB7v160006Ev, symObjAddr: 0x6090, symBinAddr: 0x10000A4EC, symSize: 0x28 }
  - { offsetInCU: 0x120BD, offset: 0x120BD, size: 0x8, addend: 0x0, symName: __ZNSt3__114__split_bufferI5pointRNS_9allocatorIS1_EEE9__end_capB7v160006Ev, symObjAddr: 0x60B8, symBinAddr: 0x10000A514, symSize: 0x28 }
  - { offsetInCU: 0x120E3, offset: 0x120E3, size: 0x8, addend: 0x0, symName: __ZNSt3__117__compressed_pairIP5pointRNS_9allocatorIS1_EEEC2B7v160006IDnS5_EEOT_OT0_, symObjAddr: 0x60E0, symBinAddr: 0x10000A53C, symSize: 0x48 }
  - { offsetInCU: 0x1213B, offset: 0x1213B, size: 0x8, addend: 0x0, symName: __ZNSt3__122__compressed_pair_elemIRNS_9allocatorI5pointEELi1ELb0EEC2B7v160006IS4_vEEOT_, symObjAddr: 0x6128, symBinAddr: 0x10000A584, symSize: 0x20 }
  - { offsetInCU: 0x1217D, offset: 0x1217D, size: 0x8, addend: 0x0, symName: __ZNSt3__117__compressed_pairIP5pointRNS_9allocatorIS1_EEE6secondB7v160006Ev, symObjAddr: 0x6148, symBinAddr: 0x10000A5A4, symSize: 0x28 }
  - { offsetInCU: 0x121A3, offset: 0x121A3, size: 0x8, addend: 0x0, symName: __ZNSt3__122__compressed_pair_elemIRNS_9allocatorI5pointEELi1ELb0EE5__getB7v160006Ev, symObjAddr: 0x6170, symBinAddr: 0x10000A5CC, symSize: 0x18 }
  - { offsetInCU: 0x121C9, offset: 0x121C9, size: 0x8, addend: 0x0, symName: __ZNSt3__117__compressed_pairIP5pointRNS_9allocatorIS1_EEE5firstB7v160006Ev, symObjAddr: 0x6188, symBinAddr: 0x10000A5E4, symSize: 0x24 }
  - { offsetInCU: 0x12212, offset: 0x12212, size: 0x8, addend: 0x0, symName: __ZNKSt3__111__move_loopINS_17_ClassicAlgPolicyEEclB7v160006INS_16reverse_iteratorIP5pointEES7_S7_EENS_4pairIT_T1_EES9_T0_SA_, symObjAddr: 0x6614, symBinAddr: 0x10000AA70, symSize: 0xA0 }
  - { offsetInCU: 0x12282, offset: 0x12282, size: 0x8, addend: 0x0, symName: __ZNSt3__18_IterOpsINS_17_ClassicAlgPolicyEE11__iter_moveB7v160006IRNS_16reverse_iteratorIP5pointEEEENS_9enable_ifIXsr12is_referenceIDTdeclsr3stdE7declvalIRT_EEEEE5valueEDTclsr3stdE4movedeclsr3stdE7declvalISB_EEEEE4typeEOSA_, symObjAddr: 0x6814, symBinAddr: 0x10000AC70, symSize: 0x28 }
  - { offsetInCU: 0x122AE, offset: 0x122AE, size: 0x8, addend: 0x0, symName: __ZNSt3__18_IterOpsINS_17_ClassicAlgPolicyEE25__validate_iter_referenceB7v160006IRNS_16reverse_iteratorIP5pointEEEEvv, symObjAddr: 0x683C, symBinAddr: 0x10000AC98, symSize: 0x4 }
  - { offsetInCU: 0x122CC, offset: 0x122CC, size: 0x8, addend: 0x0, symName: __ZNSt3__118__unwrap_iter_implINS_16reverse_iteratorIP5pointEELb0EE8__unwrapB7v160006ES4_, symObjAddr: 0x6840, symBinAddr: 0x10000AC9C, symSize: 0x24 }
  - { offsetInCU: 0x122EF, offset: 0x122EF, size: 0x8, addend: 0x0, symName: __ZNSt3__14pairINS_16reverse_iteratorIP5pointEES4_EC1B7v160006ERKS4_S7_, symObjAddr: 0x6864, symBinAddr: 0x10000ACC0, symSize: 0x3C }
  - { offsetInCU: 0x12335, offset: 0x12335, size: 0x8, addend: 0x0, symName: __ZNSt3__14pairINS_16reverse_iteratorIP5pointEES4_EC2B7v160006ERKS4_S7_, symObjAddr: 0x68A0, symBinAddr: 0x10000ACFC, symSize: 0x34 }
  - { offsetInCU: 0x1237B, offset: 0x1237B, size: 0x8, addend: 0x0, symName: __ZNSt3__118__unwrap_iter_implINS_16reverse_iteratorIP5pointEELb0EE8__rewrapB7v160006ES4_S4_, symObjAddr: 0x68D4, symBinAddr: 0x10000AD30, symSize: 0x2C }
  - { offsetInCU: 0x123A9, offset: 0x123A9, size: 0x8, addend: 0x0, symName: __ZNSt3__114__split_bufferI5pointRNS_9allocatorIS1_EEED2Ev, symObjAddr: 0x6900, symBinAddr: 0x10000AD5C, symSize: 0x80 }
  - { offsetInCU: 0x123D5, offset: 0x123D5, size: 0x8, addend: 0x0, symName: __ZNSt3__114__split_bufferI5pointRNS_9allocatorIS1_EEE5clearB7v160006Ev, symObjAddr: 0x6980, symBinAddr: 0x10000ADDC, symSize: 0x28 }
  - { offsetInCU: 0x123FB, offset: 0x123FB, size: 0x8, addend: 0x0, symName: __ZNKSt3__114__split_bufferI5pointRNS_9allocatorIS1_EEE8capacityB7v160006Ev, symObjAddr: 0x69A8, symBinAddr: 0x10000AE04, symSize: 0x40 }
  - { offsetInCU: 0x12421, offset: 0x12421, size: 0x8, addend: 0x0, symName: __ZNSt3__114__split_bufferI5pointRNS_9allocatorIS1_EEE17__destruct_at_endB7v160006EPS1_, symObjAddr: 0x69E8, symBinAddr: 0x10000AE44, symSize: 0x2C }
  - { offsetInCU: 0x12455, offset: 0x12455, size: 0x8, addend: 0x0, symName: __ZNSt3__114__split_bufferI5pointRNS_9allocatorIS1_EEE17__destruct_at_endB7v160006EPS1_NS_17integral_constantIbLb0EEE, symObjAddr: 0x6A14, symBinAddr: 0x10000AE70, symSize: 0x94 }
  - { offsetInCU: 0x12495, offset: 0x12495, size: 0x8, addend: 0x0, symName: __ZNKSt3__114__split_bufferI5pointRNS_9allocatorIS1_EEE9__end_capB7v160006Ev, symObjAddr: 0x6AA8, symBinAddr: 0x10000AF04, symSize: 0x28 }
  - { offsetInCU: 0x124BB, offset: 0x124BB, size: 0x8, addend: 0x0, symName: __ZNKSt3__117__compressed_pairIP5pointRNS_9allocatorIS1_EEE5firstB7v160006Ev, symObjAddr: 0x6AD0, symBinAddr: 0x10000AF2C, symSize: 0x24 }
  - { offsetInCU: 0x124E1, offset: 0x124E1, size: 0x8, addend: 0x0, symName: __ZNSt3__123__libcpp_numeric_limitsIdLb1EE3maxB7v160006Ev, symObjAddr: 0x6AF4, symBinAddr: 0x10000AF50, symSize: 0xC }
  - { offsetInCU: 0x3C3D, offset: 0x16280, size: 0x8, addend: 0x0, symName: __ZNSt3__1lsB7v160006IcNS_11char_traitsIcEEEERNS_13basic_ostreamIT_T0_EES7_RKNS_8__iom_t5E, symObjAddr: 0x17C, symBinAddr: 0x10000B0CC, symSize: 0x40 }
  - { offsetInCU: 0x3C89, offset: 0x162CC, size: 0x8, addend: 0x0, symName: __ZNSt3__112setprecisionB7v160006Ei, symObjAddr: 0x1BC, symBinAddr: 0x10000B10C, symSize: 0x2C }
  - { offsetInCU: 0x5D6A, offset: 0x183AD, size: 0x8, addend: 0x0, symName: _main, symObjAddr: 0x0, symBinAddr: 0x10000AF5C, symSize: 0x124 }
  - { offsetInCU: 0x5D98, offset: 0x183DB, size: 0x8, addend: 0x0, symName: __ZNSt3__112basic_stringIcNS_11char_traitsIcEENS_9allocatorIcEEEC1B7v160006IDnEEPKc, symObjAddr: 0x124, symBinAddr: 0x10000B080, symSize: 0x34 }
  - { offsetInCU: 0x5DD6, offset: 0x18419, size: 0x8, addend: 0x0, symName: __Z3absB7v160006d, symObjAddr: 0x164, symBinAddr: 0x10000B0B4, symSize: 0x18 }
  - { offsetInCU: 0x5E02, offset: 0x18445, size: 0x8, addend: 0x0, symName: __ZNSt3__18__iom_t5C1B7v160006Ei, symObjAddr: 0x2B4, symBinAddr: 0x10000B138, symSize: 0x34 }
  - { offsetInCU: 0x5E3A, offset: 0x1847D, size: 0x8, addend: 0x0, symName: __ZNSt3__18__iom_t5C2B7v160006Ei, symObjAddr: 0x2E8, symBinAddr: 0x10000B16C, symSize: 0x20 }
  - { offsetInCU: 0x5E72, offset: 0x184B5, size: 0x8, addend: 0x0, symName: __ZNSt3__112basic_stringIcNS_11char_traitsIcEENS_9allocatorIcEEEC2B7v160006IDnEEPKc, symObjAddr: 0x308, symBinAddr: 0x10000B18C, symSize: 0x60 }
  - { offsetInCU: 0x5EB0, offset: 0x184F3, size: 0x8, addend: 0x0, symName: __ZNSt3__18ios_base9precisionB7v160006El, symObjAddr: 0x4DC, symBinAddr: 0x10000B1EC, symSize: 0x2C }
...
